(lp0
F35.653387812380466
aF35.617872093936214
aF35.726828154763474
aF35.743170239221925
aF35.89796738674768
aF36.00189882145107
aF36.1716286438695
aF36.28258233987763
aF36.46391623920832
aF36.57814836073581
aF36.82576161805754
aF36.74069822757864
aF36.78452884705743
aF36.842676511078835
aF36.98157269167984
aF36.913962466795674
aF36.91084063320693
aF37.157656091981906
aF37.131575596114956
aF37.19716261020456
aF37.13872852225827
aF37.160652073127025
aF36.992239473300344
aF37.069192060254025
aF36.982312072800426
aF36.95695342219107
aF36.79774746842529
aF36.87108030014851
aF36.875105932051234
aF36.923643763177004
aF36.88638595403459
aF37.0411511025238
aF37.06276348978851
aF37.004064388253354
aF37.15539580599297
aF37.204775399133915
aF37.36083552665813
aF37.36235153868129
aF37.42622952222145
aF37.42977800161257
aF37.47040498847057
aF37.49385366296721
aF37.531965542721046
aF37.52093165820913
aF37.68464956053061
aF37.82184801804375
aF37.894436019685
aF37.716096116247236
aF37.82634044221037
aF37.943677421277975
aF37.899641324160314
aF37.78278791328136
aF37.91298631405867
aF37.87634073534559
aF37.775291610389985
aF37.78940410353145
aF37.77860050676838
aF37.81916263615576
aF37.8302644221528
aF37.8628796613517
aF37.77994466314105
aF37.68926198202878
aF37.67531934171229
aF37.752224686102934
aF37.566295565306945
aF37.48572645021035
aF37.48572645021035
aF37.50046874707035
aF37.52530396279289
aF37.569258959287446
aF37.6026200051273
aF37.600178689734975
aF37.58313700983461
aF37.70454631075675
aF37.769241784817446
aF37.845233765297316
aF37.79457219628237
aF37.68610072029209
aF37.74156569685471
aF37.633979410235106
aF37.675215659634915
aF37.691075701019734
aF37.60184087913782
aF37.56561967078408
aF37.54211177131622
aF37.60745022598581
aF37.835272068534145
aF37.82696004505252
aF37.90948306492717
aF37.73452704420714
aF37.731266046874175
aF37.680140243236885
aF37.61466843200934
aF37.74844781577118
aF37.79472722814652
aF38.003340724862596
aF38.12715157863225
aF38.241267385509076
aF38.20733936366153
aF38.22696406007152
aF38.1840219365378
aF38.13601275369516
aF37.952735820359514
aF38.00729781897156
aF37.93940481214749
aF38.05983159776196
aF38.193636986414376
aF38.2469872179496
aF38.34811762003449
aF38.28807337148214
aF38.28373716410142
aF38.12382170310317
aF38.17588816910485
aF38.184379987109914
aF38.43124949178728
aF38.44974398484339
aF38.41447481093552
aF38.46904193634149
aF38.56862795718821
aF38.38161587922009
aF38.49908683981998
aF38.465995535017676
aF38.23621074975919
aF38.19772776291804
aF38.165193976318264
aF38.20938407315669
aF38.09517275850052
aF38.02440622481829
aF37.86045512800923
aF37.69636089863317
aF37.501041652199476
aF37.51140451582692
aF37.396993946706466
aF37.276102431718904
aF37.03223891084632
aF36.92015244077413
aF36.692184539081346
aF36.56527767226717
aF36.590801012686235
aF36.40602199499418
aF36.33922209541641
aF36.19554098918816
aF36.18517911383057
aF36.166714669707005
aF36.14905124965246
aF35.976229131191616
aF35.98106055621485
aF35.80917305663453
aF35.64900507026809
aF35.673924738525756
aF35.69072883817309
aF35.784402153731726
aF35.749016594865935
aF35.66258981762261
aF35.52628868176354
aF35.504896229252665
aF35.531730977395405
aF35.539041032363265
aF35.576831470776035
aF35.63864870123445
aF35.690783561726406
aF35.7810725978135
aF35.681205662084906
aF35.75759316215229
aF35.96727027799024
aF35.977152037786425
aF35.977152037786425
aF35.96727027799024
aF36.11018294747342
aF36.23803681906623
aF36.285596746505355
aF36.3002883941712
aF36.58471547313167
aF36.99957770029274
aF37.291556098532546
aF37.384666392118575
aF37.62152184920222
aF37.9757838135041
aF38.453604349917576
aF38.53777570449545
aF38.68664175138493
aF38.91502160156152
aF39.183761783422476
aF39.353863374515086
aF39.58061394167604
aF39.64978522955705
aF40.00566366153672
aF40.29258228880348
aF40.19255411453719
aF40.149622507565375
aF40.14923333639137
aF40.122176691949306
aF40.07926716208768
aF40.06391378160651
aF40.06459627900923
aF40.12295555539248
aF40.237866960116065
aF40.25402736062567
aF40.12548675717218
aF40.366823862548316
aF40.339816326428654
aF40.49662408769402
aF40.540344488546225
aF40.41184464361903
aF40.50154318047647
aF40.37562886507156
aF40.37562886507156
aF40.43189682973085
aF40.37562886507156
aF40.47742426340886
aF40.51012604892757
aF40.48234568920136
aF40.41005637523907
aF40.41005637523907
aF40.47119925020755
a.