(lp0
F51.78169319363746
aF51.86536055017838
aF51.818267169985525
aF51.756868505542336
aF51.55791646294485
aF51.681302530509036
aF51.56670437404353
aF51.32167244449464
aF51.25499213491307
aF51.07634451240613
aF50.967245915882096
aF50.99747236383388
aF50.900715245465854
aF50.84569948628891
aF50.83256061571166
aF50.69505184187111
aF50.91771087990897
aF50.92614904201966
aF50.794200271783
aF50.65944044548854
aF50.69000456204359
aF50.61396484667053
aF50.68168123197967
aF50.72848219935227
aF50.675168043628624
aF50.637729880988935
aF50.685033848760526
aF50.56524250905952
aF50.57505252098113
aF50.69505184187111
aF50.627661967051175
aF50.63043952258364
aF50.52296816795308
aF50.37531017274236
aF50.33066442289432
aF50.58293005056152
aF50.34090812897598
aF50.2231738095075
aF50.15296912945434
aF50.15764211463693
aF50.18018315281442
aF50.2304843944392
aF50.20812154173864
aF50.167921149874246
aF50.135480512806495
aF50.15764211463693
aF50.03069370396537
aF49.9155928167742
aF50.01554445869804
aF50.024915667095335
aF50.099198471632256
aF50.00988183599318
aF49.953924082598355
aF50.083601982085916
aF50.07587992237381
aF50.165195853300524
aF50.09888658942432
aF50.113815772199985
aF50.25112716397514
aF50.29110569971593
aF50.295843516139584
aF50.34897745982534
aF50.46893382319464
aF50.52926905517237
aF50.47001739894687
aF50.57736956881012
aF50.519566135310384
aF50.58246670042892
aF50.74160952807863
aF50.783278805626566
aF50.90209659238016
aF50.89058422242763
aF50.90992351693332
aF51.02515464209785
aF50.861254285556114
aF50.88682295054389
aF50.95134014429846
aF50.92308078121354
aF50.8801057020325
aF50.97552261870397
aF51.09221136827021
aF51.03545030172654
aF51.04823087042293
aF51.13225804225743
aF51.16276875082114
aF51.20142515106391
aF51.20630759486569
aF51.13982059022108
aF51.09630154179459
aF51.157347651632605
aF51.2402429736628
aF51.207184859646404
aF51.1863171414002
aF51.15429325823982
aF51.121867263432385
aF51.01489519003249
aF50.95191513819672
aF50.878109548704735
aF50.836441161828
aF50.65481375200189
aF50.55048528451532
aF50.42375122400157
aF50.28597903491588
aF50.08687764774323
aF50.00863206737413
aF49.841232303184476
aF49.71583311682507
aF49.62775496131172
aF49.528598115129405
aF49.339781743538346
aF49.23810135454047
aF49.2113188834642
aF49.123767478176994
aF48.917061504652956
aF48.83330222553048
aF48.67273524520684
aF48.43153189039141
aF48.34846656048152
aF48.249676164716384
aF48.158835508139106
aF48.230889998008536
aF48.110427988638804
aF48.04977887566185
aF47.94695148025576
aF47.81021236357354
aF47.60133106069619
aF47.598992242483455
aF47.478325647078165
aF47.42568199298773
aF47.433876673217426
aF47.3607745792866
aF47.319847514018896
aF47.35363964364302
aF47.276530250220354
aF47.29309377435568
aF47.433876673217426
aF47.44326381321167
aF47.259341007889645
aF47.187334436795645
aF47.1831951678773
aF47.23325596176914
aF47.3607745792866
aF47.22767329649006
aF47.28677471027179
aF47.210673117950776
aF47.22390979419218
aF47.403932458183256
aF47.488608831487156
aF47.651772330627956
aF47.71566992351674
aF47.664927488668226
aF47.557900566046854
aF47.428976506983574
aF47.46680583576274
aF47.45413081334438
aF47.46725845253758
aF47.317494782585435
aF47.35178355933385
aF47.35178355933385
aF47.26731660196081
aF47.2545467389118
aF47.27748043466361
aF46.97859386199208
aF47.04390402857739
aF46.925223094834614
aF46.90032649140089
aF46.93516971578988
aF46.84161311003284
aF46.84161311003284
aF46.77184482944841
aF46.80636642060565
aF46.88508224904805
aF47.04755738877418
aF47.16004996286581
aF47.45466586648777
aF47.61277730294674
aF47.821976185118075
aF47.949110393207505
aF48.293738271643456
aF48.50064432561695
aF48.80001440829705
aF48.93087439183976
aF49.119632340338214
aF49.34738151614531
aF49.65608283483505
aF49.88224414809342
aF49.970030080539274
aF50.19816200569499
aF50.16862191649278
aF50.00417951281673
aF49.95142171400129
aF50.01070197967631
aF50.05477468483901
aF50.13267553452538
aF50.14303758997853
aF50.04708720295318
aF49.924982786677056
aF49.910662375388284
aF49.80877495482096
aF49.62928980199092
aF49.50982383578031
aF49.341365126027874
aF49.17812807793725
aF49.1162921671618
aF49.14340463124223
aF49.271886000030484
aF49.19373372188779
aF49.053781072410715
aF48.98118261128451
aF48.791528785743125
aF48.574403303077226
aF48.42991876154657
aF48.4022855865299
aF48.40910458013038
aF48.36526872405445
aF48.544880973692784
aF48.517796348350366
aF48.711924233189556
aF48.88351108758453
a.