(lp0
F51.03682800194385
aF51.129622346052976
aF51.034799708140326
aF51.05351053061875
aF51.06953745874345
aF51.13267821315445
aF51.12152341480054
aF51.0819653840766
aF51.02270481119165
aF51.15543867713383
aF51.29285555757254
aF50.996438294747605
aF50.888511719247596
aF50.81984110561543
aF50.72324571880234
aF50.804196738556946
aF50.779701899479484
aF50.67917625859757
aF50.67917625859757
aF50.71850931859098
aF50.618479518353766
aF50.524050584845234
aF50.57748541841518
aF50.45859998553269
aF50.44431490515061
aF50.432852945773355
aF50.373798062584086
aF50.536071585056945
aF50.49017540571631
aF50.495745489100365
aF50.45925800831796
aF50.318167382666076
aF50.312228260135726
aF50.28174525859261
aF50.32604631301768
aF50.21259490904647
aF50.14502405523403
aF50.24506350130329
aF50.17021807058447
aF50.14502405523403
aF50.13512989910368
aF50.13512989910368
aF50.13022104978194
aF50.13512989910368
aF50.17270952669389
aF50.07073122094384
aF50.17270952669389
aF50.195399440586186
aF50.27475292082498
aF50.16714250881746
aF50.085317833672576
aF50.11443934885434
aF50.040335293141275
aF50.00960845177654
aF50.00640583965218
aF50.04642376084429
aF50.04041335510729
aF50.02850749822545
aF49.9953513464002
aF49.9608440431104
aF49.93437099083155
aF50.03553424817207
aF50.183802790342625
aF50.27020737971945
aF50.40875884952931
aF50.50375140769248
aF50.70248699521553
aF50.74672865072191
aF51.086400465290176
aF51.21252440809767
aF51.258840700897636
aF51.443954637547066
aF51.71760761578207
aF51.79964406248367
aF51.87688249596346
aF51.895402614297154
aF52.022381000873075
aF52.10060130411164
aF51.95137450058468
aF52.09988903539047
aF51.93197172744359
aF52.00428167468521
aF51.940846763409624
aF51.87658130119987
aF51.93185889942705
aF51.8357532259347
aF51.8604648311216
aF51.810426677455574
aF51.65903841536348
aF51.65332909164713
aF51.6037713616941
aF51.830590930935756
aF51.63718076638189
aF51.500758489560134
aF51.50189620295548
aF51.32330884939123
aF51.391154698547105
aF51.49605567419703
aF51.44038570277249
aF51.26318427975383
aF50.94888676408936
aF50.90681591152603
aF50.758350606082544
aF50.71076839538127
aF50.6340269729754
aF50.527568279603564
aF50.45345162870426
aF50.20135238467187
aF50.25812278875923
aF50.20598196430382
aF50.136142776444224
aF50.003788918940934
aF49.84236871126813
aF49.65183468412824
aF49.428056936319074
aF49.3987680134839
aF49.35925381830645
aF49.330082416817426
aF49.169469376331485
aF48.975280754682764
aF48.76686407028855
aF48.65045927326894
aF48.539006543706684
aF48.359412863474674
aF48.20998988798898
aF48.14269155333964
aF48.11477164031853
aF48.02184561478244
aF47.86753368672758
aF47.74689126006006
aF47.70338857198721
aF47.75331303951591
aF47.71972207588808
aF47.65992813674817
aF47.67635846255458
aF47.65718236792855
aF47.82066923674323
aF47.87495920363797
aF47.73040337405499
aF47.80596360549592
aF47.89074480001329
aF47.93375148316685
aF48.02851529300068
aF48.09239967240146
aF48.139161877311494
aF48.23360310768832
aF48.30635471912572
aF48.156361534588555
aF48.22040057123126
aF48.08740414599232
aF47.93754074313784
aF47.92054785006115
aF47.861045616450966
aF47.831205491289886
aF47.8372893253788
aF47.82005659239646
aF47.76496820369506
aF47.69053070317
aF47.49416082530567
aF47.356403012158765
aF47.36803213930256
aF47.35953738424817
aF47.205377408193655
aF47.19395651193064
aF47.06901515328316
aF46.99700788348126
aF47.02746039549659
aF47.11314506058792
aF47.00569280682926
aF46.91835495038163
aF46.91727260561935
aF46.829519603023904
aF46.70360331387719
aF46.57780788637439
aF46.679634544949046
aF46.909945307471844
aF47.01902872773958
aF47.089758042487325
aF47.28954198604592
aF47.59895120955923
aF47.82785701084672
aF48.09162803960789
aF48.47623451238761
aF48.52741654209505
aF48.89489684517189
aF48.89757311206764
aF49.22088289029363
aF49.32802353885669
aF49.547838310566085
aF49.856277814333474
aF49.815715078175884
aF49.939494641015344
aF50.021909262342234
aF50.12788333353005
aF50.16648065441705
aF49.92783855225459
aF49.93108532016904
aF49.897081577984096
aF49.775982536761646
aF49.74674141338305
aF49.514281399410415
aF49.606301578025345
aF49.54279242483209
aF49.591849758806134
aF49.524536216909695
aF49.543423188653406
aF49.46645012025827
aF49.32624174818106
aF49.30984625305579
aF49.15651819697974
aF49.10531571276169
aF49.217549588535995
aF49.217549588535995
aF49.299982568455334
aF49.21068386285645
aF49.283499076770106
aF49.299982568455334
aF49.24385272549255
aF49.34488796977859
aF49.16593396346702
aF49.04358711901078
aF49.10595209595269
aF48.970814012021485
aF48.91542445895773
aF48.797773066503765
aF48.811259587312435
aF48.771990232612
aF48.58746944943727
aF48.599366636819454
aF48.611421625992385
aF48.67482184096825
aF48.77166986325155
aF48.83202234446163
aF48.85925257819649
a.