(lp0
F-8.3125
aF-8.4375
aF-8.625
aF-8.5625
aF-8.5625
aF-8.6875
aF-8.6875
aF-8.75
aF-8.8125
aF-8.8125
aF-8.8125
aF-8.75
aF-8.75
aF-8.625
aF-8.5625
aF-8.3125
aF-8.1875
aF-8.1875
aF-8.125
aF-8.3125
aF-8.1875
aF-8.0
aF-7.75
aF-7.5
aF-7.3125
aF-7.25
aF-7.375
aF-7.5625
aF-7.625
aF-7.8125
aF-8.1875
aF-8.4375
aF-8.625
aF-8.9375
aF-9.0625
aF-9.1875
aF-9.5625
aF-10.0
aF-10.3125
aF-10.5625
aF-10.6875
aF-10.8125
aF-10.75
aF-10.8125
aF-11.0
aF-11.25
aF-11.25
aF-11.375
aF-11.5
aF-11.3125
aF-11.25
aF-11.1875
aF-11.0625
aF-10.875
aF-11.0625
aF-11.3125
aF-11.4375
aF-11.5625
aF-11.75
aF-11.875
aF-11.9375
aF-11.6875
aF-11.5
aF-11.0625
aF-10.8125
aF-10.8125
aF-10.625
aF-10.5
aF-10.375
aF-10.25
aF-9.8125
aF-9.25
aF-9.125
aF-8.875
aF-8.4375
aF-7.9375
aF-7.375
aF-6.9375
aF-6.75
aF-6.6875
aF-6.5625
aF-6.375
aF-6.25
aF-6.25
aF-6.0625
aF-5.9375
aF-6.0
aF-5.875
aF-5.6875
aF-5.25
aF-5.25
aF-5.1875
aF-5.125
aF-5.0
aF-4.75
aF-4.5625
aF-4.3125
aF-4.1875
aF-4.0
aF-3.6875
aF-3.5625
aF-3.25
aF-2.9375
aF-2.8125
aF-2.625
aF-2.8125
aF-2.6875
aF-2.6875
aF-2.625
aF-2.4375
aF-2.4375
aF-2.5
aF-2.4375
aF-2.375
aF-2.375
aF-2.375
aF-2.375
aF-2.4375
aF-2.625
aF-2.875
aF-2.9375
aF-3.0
aF-3.125
aF-3.125
aF-3.5625
aF-3.875
aF-4.1875
aF-4.375
aF-4.5
aF-4.5625
aF-4.75
aF-4.9375
aF-5.1875
aF-5.3125
aF-5.3125
aF-5.3125
aF-5.4375
aF-5.5625
aF-5.6875
aF-5.875
aF-5.75
aF-5.8125
aF-5.9375
aF-6.0625
aF-6.125
aF-6.4375
aF-6.4375
aF-6.375
aF-6.375
aF-6.4375
aF-6.5625
aF-6.6875
aF-6.75
aF-6.75
aF-6.8125
aF-6.75
aF-6.9375
aF-7.125
aF-7.1875
aF-7.25
aF-7.4375
aF-7.4375
aF-7.6875
aF-7.875
aF-8.0
aF-8.0625
aF-8.0625
aF-8.0625
aF-8.0625
aF-8.3125
aF-8.5625
aF-8.875
aF-9.0625
aF-9.1875
aF-9.25
aF-9.3125
aF-9.5
aF-9.4375
aF-9.5
aF-9.625
aF-9.75
aF-9.9375
aF-10.1875
aF-10.25
aF-10.375
aF-10.3125
aF-10.125
aF-9.9375
aF-9.75
aF-9.625
aF-9.5625
aF-9.5625
aF-9.5
aF-9.4375
aF-9.25
aF-9.25
aF-9.1875
aF-9.0625
aF-8.9375
aF-8.9375
aF-9.125
aF-9.0
aF-9.0625
aF-8.9375
aF-9.0
aF-9.0
aF-9.0
aF-8.9375
aF-9.0625
aF-9.125
aF-9.0625
aF-9.0625
aF-9.1875
aF-9.375
aF-9.4375
aF-9.5625
aF-9.5625
aF-9.5625
aF-9.5
aF-9.75
aF-9.75
aF-9.8125
aF-9.9375
aF-9.9375
aF-9.8125
aF-9.8125
aF-9.875
aF-9.875
aF-9.6875
aF-9.5625
a.