(lp0
F51.95302866532422
aF51.92230523821145
aF51.872477348301
aF51.86532289256474
aF51.812085342128434
aF51.74414972970374
aF51.65695893342929
aF51.639866200930456
aF51.53074779925088
aF51.559962058752525
aF51.54071509496158
aF51.4316141833017
aF51.27811728700655
aF51.272098894037875
aF51.048001307592834
aF51.09068224735309
aF51.0186087374009
aF51.042376695741744
aF50.966632773315524
aF50.75881235066478
aF50.87883892150056
aF50.85100017452951
aF50.78766305659279
aF50.61226691722077
aF50.661676529206964
aF50.55002163698845
aF50.622607968179594
aF50.709497384612284
aF50.60728856844634
aF50.58910764680476
aF50.781740382247634
aF50.69308693007361
aF50.736566879815584
aF50.746497723980916
aF50.8137299974131
aF50.736566879815584
aF50.66637969354037
aF50.749807573526816
aF50.650302318939815
aF50.75511827638667
aF50.70059941706804
aF50.623109532603785
aF50.560336789325284
aF50.348279203464344
aF50.46618608038456
aF50.53046729449471
aF50.49601624138285
aF50.37399192539738
aF50.190301914314084
aF50.17753637087018
aF50.16527372097156
aF50.27273273107401
aF50.197772921216334
aF50.365151022309064
aF50.58524673756173
aF50.615392606893806
aF50.675861795829384
aF50.76681525612967
aF50.88183307920421
aF51.02350867492356
aF51.00172331647236
aF50.98946735601383
aF51.112162202356494
aF51.15314781369764
aF51.199136345254885
aF51.179333902953445
aF51.27545099752902
aF51.45226853599363
aF51.57704340353371
aF51.58870546204857
aF51.655181855260174
aF51.60221955013176
aF51.65121156613851
aF51.75403818785545
aF51.71711666605167
aF51.83952099990894
aF51.96246391627326
aF52.04298854072468
aF51.95208880545613
aF52.062537514992485
aF52.22524832396683
aF52.32985823122398
aF52.48950788014687
aF52.42189130029553
aF52.317054759896415
aF52.43038539339569
aF52.416749469992894
aF52.51707311674937
aF52.58493873011549
aF52.42692086371276
aF52.5929979892761
aF52.409855645193296
aF52.288487619169096
aF52.24196259952338
aF52.33982261385684
aF52.23048379538524
aF52.129721009228504
aF52.09707735324507
aF51.720590979318864
aF51.67710748000511
aF51.60221955013176
aF51.34522403544462
aF51.23940439251807
aF51.014320905996584
aF50.96352862587127
aF50.93228500911774
aF50.69782570534954
aF50.75265541082555
aF50.64929972368819
aF50.58547840042634
aF50.528457328519345
aF50.421465852848826
aF50.38073788661694
aF50.33035397501194
aF50.40031156897743
aF50.2231738095075
aF50.24914489322182
aF50.06328026857609
aF49.96029673650868
aF49.973664939645964
aF49.925608721877396
aF49.74159790859156
aF49.68250761082818
aF49.46866116542876
aF49.369066099127295
aF49.26375918208029
aF49.028252378093185
aF48.990831412622505
aF48.715572779656405
aF48.62170618664055
aF48.41059736772518
aF48.25574771465053
aF48.15721324474663
aF48.15721324474663
aF48.13652459411668
aF48.10409448529304
aF48.06416609595968
aF48.04721798658066
aF48.111727065758096
aF48.17631193076116
aF48.04217710772483
aF47.994709994956736
aF48.00748639535296
aF48.05014470581749
aF48.097800755335996
aF48.127475585677665
aF48.15721324474663
aF48.1542930329166
aF48.132507531293236
aF48.03864004632104
aF47.974439809131695
aF47.92511248030619
aF47.85647487540218
aF47.839494013837566
aF47.742064131120266
aF47.665173344906655
aF47.55428641300382
aF47.52408928638191
aF47.370134974475214
aF47.35809394918677
aF47.30820654231145
aF47.09809410952847
aF47.013752974528636
aF46.92518147274446
aF46.94602951794752
aF47.07266656457864
aF46.92156020956678
aF46.735751505137905
aF46.74068256080564
aF46.61628604897649
aF46.50886172279429
aF46.38451721749403
aF46.46188794323795
aF46.4450700424706
aF46.494665352597174
aF46.45032629056549
aF46.54580237518739
aF46.646777755810746
aF46.832605829165644
aF47.02135485606513
aF47.164688194665295
aF47.35970234545399
aF47.5232262293923
aF47.72070436403889
aF47.88829776156175
aF48.18989131550309
aF48.36151297778017
aF48.672093197745255
aF48.89837196932021
aF48.98457186962034
aF49.21100137418461
aF49.29538676438192
aF49.38476960308714
aF49.36234014914609
aF49.442438122527896
aF49.40778183899779
aF49.381249604480445
aF49.351299691598804
aF49.39058298400617
aF49.50572094465447
aF49.329646892107384
aF49.27846575838172
aF49.355771572329814
aF49.37768980015165
aF49.365861496078445
aF49.43923827538203
aF49.42774081930106
aF49.59200729452277
aF49.6258265044523
aF49.67401546583485
aF49.66422410800354
aF49.82920046268051
aF49.90181766479053
aF49.950365989650166
aF50.04817991196084
aF50.01449008787353
aF50.07845407458181
aF50.109333586668264
aF50.15355327641303
aF50.15156714899346
aF50.252526366840506
aF50.263874017528735
aF50.25291502738921
aF50.10820323310346
aF50.095611709011
aF50.19715037977753
aF50.2038422956849
aF50.05290170159968
aF50.037056580598346
aF49.99574200619489
aF49.7709597807798
aF49.72604636908106
aF49.70966486760899
aF49.643258605776474
aF49.50875869480066
aF49.4143039766827
aF49.19722743712292
aF49.02602147074551
aF49.026459692700634
aF49.16593396346702
aF49.15524673165623
aF49.04916219977667
aF49.01582174410626
aF48.96080224271249
aF48.951107622810746
a.