(lp0
F34.8125
aF34.8125
aF34.875
aF34.8125
aF34.6875
aF34.5
aF34.375
aF34.25
aF33.9375
aF33.875
aF33.75
aF33.4375
aF33.25
aF33.125
aF32.9375
aF32.75
aF32.6875
aF32.5625
aF32.5
aF32.4375
aF32.625
aF32.5625
aF32.5625
aF32.5
aF32.5625
aF32.4375
aF32.4375
aF32.5
aF32.4375
aF32.5625
aF32.625
aF32.5625
aF32.6875
aF32.75
aF32.75
aF32.6875
aF32.5
aF32.6875
aF32.5
aF32.5
aF32.625
aF32.5625
aF32.5
aF32.4375
aF32.5625
aF32.5
aF32.5625
aF32.5
aF32.25
aF32.125
aF32.1875
aF32.25
aF32.25
aF32.3125
aF32.6875
aF32.6875
aF32.6875
aF32.875
aF33.0625
aF33.1875
aF33.3125
aF33.3125
aF33.5
aF33.5625
aF33.6875
aF33.8125
aF33.875
aF34.1875
aF34.375
aF34.4375
aF34.6875
aF34.75
aF34.875
aF35.0625
aF35.25
aF35.4375
aF35.625
aF35.75
aF35.625
aF35.75
aF36.0
aF36.25
aF36.4375
aF36.4375
aF36.4375
aF36.5625
aF36.5
aF36.5625
aF36.625
aF36.5
aF36.5625
aF36.4375
aF36.3125
aF36.25
aF36.4375
aF36.375
aF36.1875
aF36.1875
aF35.875
aF35.8125
aF35.75
aF35.5625
aF35.5
aF35.3125
aF35.375
aF35.375
aF35.125
aF35.0625
aF35.0
aF35.0
aF35.0
aF34.9375
aF34.875
aF34.75
aF34.75
aF34.625
aF34.75
aF34.5625
aF34.5
aF34.5625
aF34.4375
aF34.25
aF34.25
aF34.125
aF33.9375
aF33.8125
aF33.5625
aF33.5
aF33.25
aF33.25
aF33.1875
aF33.0625
aF32.875
aF32.875
aF32.75
aF32.6875
aF32.6875
aF32.75
aF32.75
aF32.75
aF32.75
aF32.6875
aF32.75
aF32.8125
aF32.875
aF32.875
aF32.875
aF32.8125
aF32.875
aF32.875
aF32.875
aF32.875
aF32.6875
aF32.625
aF32.4375
aF32.375
aF32.25
aF32.25
aF32.125
aF32.0625
aF31.9375
aF31.8125
aF31.6875
aF31.5625
aF31.4375
aF31.4375
aF31.25
aF31.0625
aF31.0625
aF30.875
aF30.8125
aF30.5625
aF30.5625
aF30.5625
aF30.5
aF30.5
aF30.5625
aF30.625
aF30.8125
aF31.0
aF31.0625
aF31.25
aF31.4375
aF31.625
aF31.8125
aF32.0
aF32.1875
aF32.625
aF32.8125
aF33.0
aF33.1875
aF33.3125
aF33.4375
aF33.5
aF33.625
aF33.625
aF33.6875
aF33.6875
aF33.6875
aF33.8125
aF33.75
aF33.8125
aF33.875
aF34.0
aF34.125
aF34.125
aF34.25
aF34.4375
aF34.5
aF34.5625
aF34.625
aF34.8125
aF34.875
aF35.0
aF35.1875
aF35.1875
aF35.3125
aF35.4375
aF35.5
aF35.625
aF35.625
aF35.75
aF35.6875
aF35.625
aF35.6875
aF35.75
aF35.8125
aF35.6875
aF35.625
aF35.6875
aF35.625
aF35.6875
aF35.75
aF35.625
aF35.5625
aF35.4375
aF35.3125
aF35.125
aF35.25
aF35.3125
aF35.375
aF35.3125
aF35.25
aF35.25
aF35.3125
a.