(lp0
F38.539448134346706
aF38.505123441562944
aF38.61569467198538
aF38.55039315623124
aF38.50786242769131
aF38.5108040846981
aF38.563361011457495
aF38.47782437651588
aF38.56331036425685
aF38.49568766433456
aF38.422507238596495
aF38.324936806862446
aF38.422863066799174
aF38.21469980583388
aF38.21107087612175
aF38.126895444685765
aF38.007040877316406
aF38.04463866630882
aF38.049874753407536
aF38.141236296821845
aF38.26715301665385
aF38.1660127764219
aF38.15746568497441
aF38.18591445153566
aF37.986942657971305
aF38.094352435761394
aF38.0863533631142
aF38.13672975295601
aF38.07691639957206
aF38.242850639041016
aF38.31759754016423
aF38.41661017710959
aF38.550595812516306
aF38.629348460723484
aF38.743699084496306
aF38.59388916978956
aF38.51516543843477
aF38.44400351485261
aF38.46970195816443
aF38.419355473511004
aF38.51891783591538
aF38.55459805587396
aF38.7398172104619
aF38.62626413788939
aF38.64966849793152
aF38.57652702745544
aF38.5558645020443
aF38.513542666833445
aF38.38690776163144
aF38.438465435030054
aF38.455178861240526
aF38.60385748212217
aF38.4544170089731
aF38.52626944696307
aF38.40705094771011
aF38.437195120742096
aF38.383244228439054
aF38.32998173753804
aF38.31234706331629
aF38.29531629324923
aF38.31148041057667
aF38.30036512554417
aF38.272460725696746
aF38.23084692038616
aF38.29705031069626
aF38.15142526826488
aF37.96071159765054
aF37.92745954450417
aF38.010894819775025
aF37.95227265922293
aF38.04032605341337
aF38.01007267817308
aF38.01007267817308
aF37.96148335813552
aF37.760501436686454
aF37.809555670491555
aF37.795347349243926
aF37.84724643220429
aF37.667594245584624
aF37.68376847198274
aF37.57128640997005
aF37.44193421152278
aF37.399709641252564
aF37.44495960740244
aF37.415790867627
aF37.31401797582244
aF37.35733278086111
aF37.328566473948605
aF37.253512837717736
aF37.14708938799916
aF37.21648030442965
aF37.13751893301436
aF37.139569952410596
aF36.90157940386834
aF36.9174014693613
aF36.760468321962385
aF36.88596235358378
aF36.88246746423021
aF36.86859054466281
aF36.794881182713446
aF36.61353276112536
aF36.62681309505374
aF36.470182598254155
aF36.62697306972008
aF36.688777660886984
aF36.71458753002681
aF36.534070143497566
aF36.562980766069934
aF36.64275380276433
aF36.666358900223514
aF36.85168754616266
aF37.02775563681925
aF37.121580229699276
aF37.22461383278542
aF37.28212750434181
aF37.3365709626634
aF37.56457980930973
aF37.71029575924856
aF37.86050671544162
aF37.81384295135844
aF37.758742778990936
aF37.937088136149825
aF38.21822618201949
aF38.31861696682176
aF38.38502515630282
aF38.63192696785911
aF38.60340213310221
aF38.55525661307418
aF38.630915809102945
aF38.68028002096158
aF38.585639329937244
aF38.51967841246861
aF38.50537705957442
aF38.65436788061603
aF38.605425865414304
aF38.697847969880705
aF38.759121910203284
aF38.55743483752517
aF38.473712616538585
aF38.33798092296985
aF38.06275656727978
aF37.886394738085066
aF37.84327260227371
aF37.69584277476762
aF37.556779930526524
aF37.33850643102908
aF37.19254167504555
aF37.250734053170014
aF37.09937036190776
aF36.75898062038718
aF36.570832383882106
aF36.30975678106368
aF36.13073051434194
aF36.0400168215832
aF35.984642991837504
aF36.02917654485042
aF35.87374780044594
aF35.74431773023511
aF35.510781813415484
aF35.5726589180511
aF35.47776592459001
aF35.38935221221208
aF35.558106055441144
aF35.43898806399528
aF35.46064059277553
aF35.42322243246653
aF35.529752057254775
aF35.508361691297445
aF35.41787375393955
aF35.538601372310644
aF35.580783964100625
aF35.993977360803015
aF36.517386697982644
aF37.15471243664793
aF37.929725315377645
aF38.40018513952765
aF39.03098728894774
aF39.56610370632924
aF40.05703940944712
aF40.571840218925246
aF41.193332288126435
aF41.781892758705894
aF42.280222178933734
aF42.85331084058733
aF43.48140766465593
aF43.81116260440939
aF44.244791360113794
aF44.07756834547477
aF44.15575238573113
aF44.0204586669653
aF43.83674436189348
aF43.60914826616085
aF43.381573709352686
aF43.25121927472103
aF42.94714229433665
aF42.87449890377729
aF42.63778217438144
aF42.52141004835094
aF42.31586951133109
aF42.28073031831404
aF42.0326324122104
aF41.91551211961987
aF41.68192428979257
aF41.69354341501811
aF41.6117189773506
aF41.528322413745535
aF41.49143360381755
aF41.500611817779266
aF41.36314973802165
aF41.215610665135124
aF41.26500673997279
aF41.205515786724476
aF41.10827927559119
aF41.16141055345407
aF41.137156258059456
aF41.15187191975597
aF41.116925499117755
aF41.168242842632964
aF41.34728112282596
aF41.41501086562697
aF41.379201070707005
aF41.289138629305405
aF41.24725369645839
aF41.327673083540525
aF41.257622401805946
aF41.29609167342595
aF41.29978056842433
aF41.18086061813182
aF41.08290018365305
aF40.90065135483786
aF40.7912463801978
aF40.68063498152407
aF40.567748119657814
aF40.41609750458349
aF40.33153620307563
aF40.22966295222967
aF40.16572115934183
aF40.11355950610716
aF40.05469892846531
aF40.01708619452446
aF39.98407886271735
aF40.000488278269806
aF39.98906100422965
aF40.03387237702593
aF40.17763292554702
aF40.19454642734509
aF40.210529948634104
aF40.19036731606219
aF40.20110578392092
aF40.18302852262383
aF40.0576245083255
aF39.896007397357444
aF39.870983340018086
aF39.83339326180987
aF39.80842797071997
aF39.7518670945152
aF39.76454136539236
aF39.745970707733385
aF39.677803933685645
aF39.57789984637891
aF39.60375021699334
aF39.5285201626623
aF39.515671337458
a.