(lp0
F39.25726445512983
aF39.32725279624805
aF39.37544642604068
aF39.39731510522005
aF39.364929267686996
aF39.47427960077296
aF39.48130491131214
aF39.42209485174526
aF39.35217592459151
aF39.43130894352862
aF39.55045235202753
aF39.46012623522636
aF39.50004944617158
aF39.516116174290204
aF39.6256407676898
aF39.54452593280137
aF39.50355996616001
aF39.55074864967792
aF39.579627019465455
aF39.501186691034995
aF39.443194913698356
aF39.48827951114102
aF39.48936763547879
aF39.655942177686306
aF39.76350988972176
aF39.87108131214904
aF39.918422673622764
aF40.04923727426029
aF40.09251995385174
aF40.21800941431587
aF40.20071711114119
aF40.49291025908116
aF40.60316721020664
aF40.74357694778405
aF40.84981066357591
aF40.9951883609528
aF41.088984989897234
aF41.28700991231988
aF41.14546413336469
aF41.1642100312881
aF41.14332798279692
aF41.3303195305819
aF41.49741144035372
aF41.53302526303616
aF41.60500645955965
aF41.639308726850885
aF41.74597660254219
aF41.77408549268314
aF41.73137683446354
aF41.80404436176002
aF41.831553954520984
aF41.9009714237033
aF41.901064649361835
aF41.82987307236301
aF42.04596628988327
aF42.0481030339063
aF42.12634456311157
aF42.13830464968898
aF42.11452020978038
aF42.21314035641035
aF42.139787834658115
aF42.184027634876216
aF42.37274145898516
aF42.487773976757126
aF42.71334320209552
aF42.74830954260063
aF42.797123150978265
aF42.84405771224289
aF42.92412455426435
aF43.00458732798165
aF42.957555359913115
aF43.06558406953283
aF43.160583145967806
aF43.301721241770515
aF43.40979332189915
aF43.42832636943312
aF43.514769403617436
aF43.765622210817476
aF43.76705024901724
aF43.829926990584866
aF43.78761775605062
aF43.93234322512288
aF43.99152084493102
aF44.13141773442136
aF44.130267036921495
aF44.16251945937867
aF44.26487214767484
aF44.264519157560045
aF44.343254489831935
aF44.27704858332362
aF44.343606853186856
aF44.55794156208296
aF44.73969853497004
aF44.784335640377655
aF44.81350242951336
aF44.75113476214877
aF45.07064766841054
aF45.211698223468666
aF45.2828351171832
aF45.46607595229656
aF45.758281354307876
aF46.09039182682221
aF46.27634384866635
aF46.53698965607896
aF46.75605742842311
aF46.948359263130804
aF47.21795374907727
aF47.383450763425834
aF47.5101140547989
aF47.653575744638516
aF47.71620204395987
aF47.922830219531065
aF47.78688039096087
aF47.657838088293516
aF47.77367704866352
aF47.70834243085794
aF47.541511466296484
aF47.3798645259777
aF47.38580022010813
aF47.27624105986008
aF47.17400469273305
aF47.11343525205947
aF46.80949589826833
aF46.488279772970735
aF46.354779958489715
aF45.975961789831
aF45.69707492006463
aF45.444119187745294
aF45.403099082001
aF45.20694602326063
aF44.97655639330339
aF44.73856348274942
aF44.524922796114986
aF44.33929020913619
aF43.89658479027725
aF43.60269845433881
aF43.44312014001757
aF43.218241591369726
aF43.148996946626696
aF43.0623185772666
aF42.86948761940128
aF42.84027383782695
aF42.87946405332044
aF42.793974093907195
aF42.646301495557616
aF42.69468277783546
aF42.561719890060836
aF42.49361165222368
aF42.51190090727537
aF42.43202284242409
aF42.428892720644974
aF42.53922821937417
aF42.38541538666337
aF42.35291644326279
aF42.36896159041427
aF42.35812717177189
aF42.33142117564682
aF42.239504983486725
aF42.14970529256403
aF42.08329723595811
aF41.95468165175372
aF41.95165558413637
aF41.90558584484889
aF41.985395526301765
aF42.06858239826961
aF42.169764790664885
aF42.27652643607325
aF42.133205803142964
aF42.13102701691474
aF42.10482640090088
aF41.8040910826919
aF41.66725520417682
aF41.48823251839008
aF41.17573807778071
aF41.05184412727399
aF40.69196404082752
aF40.38491557809673
aF40.00786055577079
aF39.807201374248855
aF39.48432244258473
aF39.13807688811498
aF38.87067902031041
aF38.558701190522484
aF38.36100111115454
aF38.09630067342497
aF37.84368548714567
aF37.84389192789241
aF37.723552407614
aF37.50765546858401
aF37.46169919064003
aF37.56062807315661
aF37.79720765149193
aF37.91401661984654
aF38.305821196001006
aF38.53625525073758
aF38.607044774885324
aF38.8647997068041
aF39.074698095442784
aF39.173392596250835
aF39.34105679821019
aF39.59349102125247
aF39.854177557064205
aF40.0393361271138
aF40.128066471610616
aF40.31312984004095
aF40.43928705479363
aF40.5070402831409
aF40.52010496346227
aF40.69695550652407
aF40.59421910814396
aF40.57930121995695
aF40.555806458508506
aF40.434795118189975
aF40.52102077934365
aF40.63312418766246
aF40.68097105834619
aF40.64191955358408
aF40.70828002384773
aF40.593016255878304
aF40.65839973178974
aF40.78779880368638
aF40.84981066357591
aF40.94556218322079
aF40.98804131999967
aF41.08442146970065
aF41.15870579233511
aF41.26008399470365
aF41.298550973369515
aF41.4368872503715
aF41.51458704479668
aF41.58218518789026
aF41.641419434260406
aF41.69785291235029
aF41.55512152551115
aF41.61683478473585
aF41.54760071291722
aF41.47853360474548
aF41.477780196148395
aF41.477780196148395
aF41.4319377865675
aF41.323797623161404
aF41.28204247914582
aF41.31387100599507
aF41.38708282785826
aF41.42203708474512
aF41.20267171252369
aF41.16468450018778
aF41.17075721917196
aF41.030857290580705
aF41.13568440235315
aF41.10077173849659
aF41.16620276391788
aF41.19859486378146
aF41.26898237478118
aF41.23124573669828
aF41.30460401093321
aF41.303847429749204
aF41.266142674715795
aF41.19793115254697
aF41.266142674715795
aF41.19508655470941
aF41.41383185301741
aF41.48253585847905
aF41.479899122948694
aF41.656988459320964
aF41.657738626814584
aF41.727819707001224
aF41.90637816908066
aF41.97939412676176
aF41.97660248578963
aF42.04596628988327
aF42.11892574900267
aF42.009020608674035
aF42.01069432299352
aF41.93614938212615
aF41.900784971763954
a.