(lp0
F39.900813916158086
aF39.89083050268915
aF39.86084166371526
aF39.83175248991059
aF39.786098157705325
aF39.73130511090996
aF39.69617514457816
aF39.66209907723632
aF39.638838932878734
aF39.63236289939357
aF39.62582222639376
aF39.61947777358394
aF39.605620734819084
aF39.58877789032252
aF39.56204204347547
aF39.536108272033836
aF39.51558587268559
aF39.49354512587792
aF39.47352791191805
aF39.454111214376965
aF39.43569421613082
aF39.42013953313806
aF39.40600433491836
aF39.39229319264525
aF39.371449047703265
aF39.348803823347474
aF39.3253309406525
aF39.30256224443838
aF39.2760941125279
aF39.25670657926978
aF39.225563042986344
aF39.19535381279141
aF39.14788213697437
aF39.098344887100566
aF39.051553123590686
aF39.0061651129861
aF38.973995930585446
aF38.95951929599421
aF38.94551197175153
aF38.93192486723613
aF38.912279678198026
aF38.896592071719596
aF38.86520903918267
aF38.83476749762186
aF38.80612481469627
aF38.77381339023253
aF38.74254861679419
aF38.712221786559
aF38.69590133750896
aF38.67750835601153
aF38.65404517748143
aF38.631285894307226
aF38.60926935149168
aF38.58408520150554
aF38.58392348221152
aF38.58376661449632
aF38.597671964588386
aF38.61673954636251
aF38.648174907571295
aF38.67866720794382
aF38.69036845815222
aF38.71562251031165
aF38.72830722951583
aF38.74061140714388
aF38.7497617055323
aF38.76510856514082
aF38.78302801578996
aF38.800409882919624
aF38.83253526116436
aF38.87324347906412
aF38.91763822219158
aF38.96070112302521
aF38.99992823500814
aF39.04774315859874
aF39.08036556753667
aF39.11200930420645
aF39.13145024735469
aF39.157915132964774
aF39.15921706093958
aF39.160479931075145
aF39.16951832039095
aF39.18367988194083
aF39.18363841202453
aF39.183598186205714
aF39.198705551849805
aF39.21606298883269
aF39.22328613725257
aF39.23029259121986
aF39.254350861568234
aF39.2771004024865
aF39.30144876110549
aF39.32506666896592
aF39.35995337747773
aF39.3855912497581
aF39.413574008252915
aF39.44071728399288
aF39.469587010201344
aF39.51563189859431
aF39.54684174058248
aF39.577115287311
aF39.61747177062563
aF39.657369486445184
aF39.693210493875824
aF39.72797627108355
aF39.78394213119667
aF39.819925317409556
aF39.8442412938837
aF39.86782779106362
aF39.89186240535826
aF39.90003681940867
aF39.923575116346925
aF39.94640726437704
aF39.96686501229788
aF39.97634565422114
aF39.98594390408595
aF39.99525420645482
aF40.004345542282906
aF40.02952346191957
aF40.054770744164784
aF40.07926060794264
aF40.10219107560951
aF40.12065186813766
aF40.127331241505246
aF40.13381023367181
aF40.1538938985277
aF40.180125683655
aF40.20884737249463
aF40.23670741066907
aF40.26624944646816
aF40.2797088889671
aF40.28580554245338
aF40.291719296335074
aF40.31252059087287
aF40.34012222424169
aF40.38401746210689
aF40.426595842836136
aF40.47906996693374
aF40.52960877758498
aF40.591875245345015
aF40.65227371907225
aF40.71049763064099
aF40.773394142037375
aF40.83628702642308
aF40.89729312427721
aF40.94380028908555
aF40.987541343872365
aF41.014503327615195
aF41.04065645184574
aF41.064167211711414
aF41.09539211896067
aF41.131208616910506
aF41.16595061992185
aF41.21977343850489
aF41.27223796261364
aF41.31526250495371
aF41.35699631102358
aF41.40519332991643
aF41.46247801301446
aF41.51806288255762
aF41.57198020601449
aF41.64591544150288
aF41.720572368079175
aF41.77476065462472
aF41.8273232925739
aF41.88571313972735
aF41.93538256861932
aF41.98304838586451
aF42.029284228592346
aF42.08894841465249
aF42.150240916101616
aF42.20576107092511
aF42.2596156211039
aF42.31266056025288
aF42.37015923937804
aF42.41904380874462
aF42.4664618410302
aF42.523971812833324
aF42.57543883858217
aF42.612254662248134
aF42.64796601120411
aF42.66765334297343
aF42.694225416711284
aF42.70943497470523
aF42.72418824595936
aF42.75668211952019
aF42.81772006431482
aF42.8651277508165
aF42.91111320672312
aF42.98852891284928
aF43.06338360331962
aF43.12302450836556
aF43.18087618626012
aF43.24387413715001
aF43.30203082819481
aF43.34953592975709
aF43.3956158782725
aF43.43622162370023
aF43.475942311493135
aF43.50667087258206
aF43.53647757683832
aF43.56803042857028
aF43.602583789445916
aF43.61431999441874
aF43.625704113242385
aF43.64293336765544
aF43.6516609259605
aF43.665875041096925
aF43.679662732779256
aF43.719016153213744
aF43.73516388757243
aF43.758599891369336
aF43.78133281505233
aF43.807133976064534
aF43.81740806544949
aF43.839002423322775
aF43.85994895045986
aF43.88027078193955
aF43.9009719307754
aF43.92258501838431
aF43.94354971336496
aF43.95999508070557
aF43.97082891642144
aF43.97548023327057
aF43.979992010614225
aF43.98361195080282
aF44.00173980668452
aF44.00163018270129
aF44.00152384743756
aF44.00022355465904
aF43.99954438835616
aF43.97392450291393
aF43.94907321403497
aF43.92798649226061
aF43.89425605964842
aF43.856626945169516
aF43.82012670412498
aF43.794863299183156
aF43.780484050113984
aF43.76458989231908
aF43.74917255925802
aF43.72910990445348
aF43.697020214631266
aF43.655163253930645
aF43.614562002051045
aF43.573297113226054
aF43.51822307348156
aF43.44959474601087
aF43.38302526836429
aF43.315616615595715
aF43.23429210708692
aF43.166349665511305
aF43.10044549718295
aF43.03962645803159
aF42.97009153654487
aF42.91751815055221
aF42.86652196613933
aF42.80718245405793
aF42.74189139704225
aF42.67880357351863
aF42.617608384700716
aF42.54185468134798
aF42.47239939807138
aF42.41132194156274
aF42.35207680874935
aF42.30772158874163
aF42.247350478456674
aF42.170373863346484
aF42.0957065466896
aF42.01154131612867
aF41.90955073428621
aF41.81304657171833
aF41.719437534027485
aF41.62115165124016
aF41.52292415007893
aF41.43091288479665
aF41.34166195747284
aF41.25737373931166
aF41.18128033439144
aF41.10417240060017
aF41.02937770482264
aF40.93591552001458
aF40.85274416836656
aF40.75937330024537
aF40.66880355816782
aF40.59419733676377
aF40.524418735583026
aF40.4543349560019
aF40.38635368980821
aF40.32601050251296
aF40.25436696404468
aF40.18487273173045
aF40.117463326385646
aF40.04066037592281
aF39.96939625117253
aF39.89268766435859
aF39.81828033514907
aF39.729945874454216
aF39.64850170480538
aF39.57131558485231
aF39.496445048497826
aF39.42704935915594
aF39.37742333422851
aF39.336851986364316
aF39.29749777893605
aF39.23764610106641
aF39.19020139775081
aF39.139265009970785
aF39.08985671382416
aF39.03212267181891
aF38.98165142622088
aF38.90946543640933
aF38.839445026292125
aF38.787705397200476
aF38.73134642258862
aF38.67667821721513
aF38.62365005800283
aF38.587105930418055
aF38.53557917446881
aF38.494678295089315
aF38.45500444209121
aF38.41810167623848
aF38.37312049706275
aF38.34342083293287
aF38.31461215872689
aF38.28684102533528
aF38.27198725349621
aF38.26331299335881
aF38.25489896102554
aF38.24211742724161
aF38.22838668190245
aF38.20647746278236
aF38.185225520235875
aF38.16274327874496
aF38.13011247782134
aF38.09610289723385
aF38.06311360406398
aF38.0297425905801
aF38.001770122610765
aF37.968659995741206
aF37.93654317267774
aF37.89782113355528
aF37.856620932590644
aF37.80567736003947
aF37.75626209466483
aF37.712992243427365
aF37.66923905160024
aF37.630006480973634
aF37.59195088746583
aF37.551882521344325
aF37.525950646427944
aF37.50201045686309
aF37.47878847298518
aF37.460493709558435
aF37.45276024532582
aF37.432712556709795
aF37.41326629875225
aF37.40779844841533
aF37.39387646364401
aF37.38219922220529
aF37.37087229800972
aF37.367459199282095
aF37.3569727325528
aF37.35284553245915
aF37.34884214836831
aF37.35686498229651
aF37.36766628733029
aF37.385946794476006
aF37.40367888640735
aF37.41188972433649
aF37.40482158481497
aF37.39490220948489
aF37.38528041541472
aF37.37820842299909
aF37.37514475204648
aF37.375665964356834
aF37.376171540297875
aF37.38426128600232
aF37.39094585314285
aF37.39742988326917
aF37.403719392491695
aF37.40391180686309
aF37.41112196921227
aF37.41663022839312
aF37.42197323979854
aF37.446429672163404
aF37.479254861160925
aF37.501145127706586
aF37.52237868625588
aF37.5425893996789
aF37.55871490141121
aF37.56332331162434
aF37.56779346953107
aF37.583162849167806
aF37.605352379248224
aF37.623735335412086
aF37.641566802891035
aF37.669932540934504
aF37.69622922415385
aF37.71288150500255
aF37.729034217425784
aF37.75062898467513
aF37.76233683443322
aF37.77206136870395
aF37.781494166946565
aF37.79690921324809
aF37.81731858484119
aF37.843443195529225
aF37.86878406789663
aF37.89372061777712
aF37.92365482117259
aF37.94477898722005
aF37.96526942828609
aF37.98449494297525
aF38.0056586895104
aF38.011557563519226
aF38.01727947130779
aF38.0146758252627
aF38.0232433967625
aF38.040817812368964
aF38.05786499550723
aF38.09272207935936
aF38.150401479527176
aF38.203728263568095
aF38.255455244087784
aF38.30230285315294
aF38.34743987315999
aF38.39443348277507
aF38.4400172841017
aF38.489890283145996
aF38.5470334501257
aF38.59717315497049
aF38.645808668669936
aF38.677241635068405
aF38.712549896503695
aF38.73059246054031
aF38.748093747655815
aF38.75562473676576
aF38.7569953295833
aF38.77190652301255
aF38.78637038063892
aF38.81202638038137
aF38.84457500019196
aF38.89368161524015
aF38.94131503183689
aF38.9807816422494
aF39.029055214065664
aF39.07880252724285
aF39.12705742102472
aF39.176020842373596
aF39.214027040978834
aF39.23750039012102
aF39.26026953878894
aF39.29555602334101
aF39.335347842811785
aF39.399640855278385
aF39.46200507737098
aF39.53100314653564
aF39.59430675280057
aF39.66418306779422
aF39.73196309333806
aF39.78212943482641
aF39.84314810042219
aF39.911449817718534
aF39.977702483495975
aF40.03688423809361
aF40.101655203125816
aF40.16265812927064
aF40.221830967631114
aF40.29588206356001
aF40.35419287527371
aF40.40145035565831
aF40.447290111631375
aF40.48247086781762
aF40.49116135754259
aF40.5191971641346
aF40.54639189652886
aF40.5800078642185
aF40.62188363052684
aF40.66883580206137
aF40.71437940844987
aF40.76123420411584
aF40.8076984360055
aF40.855560763104336
aF40.901987220390204
aF40.95999784216165
aF41.021145060724415
aF41.07294723076924
aF41.123195335712715
aF41.162640396818475
aF41.189494481076196
aF41.20399226025794
aF41.218055106064234
aF41.23944178605802
aF41.26946370921797
aF41.294820882449706
aF41.319417340484485
aF41.328534143565996
aF41.34964724641814
aF41.3589037016308
aF41.36788246318709
aF41.37751706403776
aF41.40076298859966
aF41.41016091255089
aF41.419276898783586
aF41.43467714258304
aF41.462835838621444
aF41.486462724852366
aF41.50938080449636
aF41.53811035648575
aF41.577458220803734
aF41.61649115137944
aF41.65435309403788
aF41.69913533244051
aF41.739155365044915
aF41.76577022419402
aF41.791586637568656
aF41.79659518194541
aF41.81133350133807
aF41.829527330189364
aF41.84717534417512
aF41.87507426996836
aF41.91662708300788
aF41.948921004025685
aF41.98024610741296
aF42.02526255140169
aF42.06890988852055
aF42.10578174360449
aF42.141547443035904
aF42.17827769425409
aF42.20292174110653
aF42.222032900858515
aF42.24057072581794
aF42.25949367200415
aF42.27146847519676
aF42.286527524536744
aF42.301134802396525
aF42.319376423322346
aF42.34315376708049
aF42.369040463271425
aF42.394150558576634
aF42.421368798991296
aF42.451815976409584
aF42.46977501920461
aF42.48719529071579
aF42.50477389426395
aF42.5212758742502
aF42.52496661717993
aF42.52854663782176
aF42.54140104298316
aF42.55537744228315
aF42.57559209792995
aF42.59520031390735
aF42.634186702564854
aF42.67003493135774
aF42.70178442027503
aF42.7325814245248
aF42.75826156669996
aF42.76242430990618
aF42.777334061487736
aF42.79179652052185
aF42.800925104090005
aF42.80563445478403
aF42.82080482473842
aF42.835520083594176
aF42.844877285083484
aF42.86988769873218
aF42.89959360923493
aF42.92840834242259
aF42.96546136220109
aF43.00317695522725
aF43.0350822223876
aF43.06603033153314
aF43.09663799228619
aF43.12858176404877
aF43.15822020066717
aF43.18696948418702
aF43.21548041810467
aF43.23750343684228
aF43.26551335965477
aF43.292682984782886
aF43.326676999203954
aF43.363812705870984
aF43.390612820077806
aF43.416608930858416
aF43.43792838428821
aF43.47185740735801
aF43.50121988928045
aF43.52970149674522
aF43.57163674546286
aF43.604836363538105
aF43.61700571882135
aF43.628809993446104
aF43.658183762122945
aF43.68394615716183
aF43.705547069390406
aF43.72649995425213
aF43.75934478636515
aF43.7635323125862
aF43.77899346268333
aF43.79399077827755
aF43.8199879551704
aF43.83172578086436
aF43.85563889221489
aF43.87883461022491
aF43.90284616057303
aF43.92480961976438
aF43.95424247426838
aF43.98279234313727
aF44.01769593416624
aF44.044096790735196
aF44.05449540067183
aF44.06458205231037
aF44.0658307755569
aF44.06191567242474
aF44.05361188086645
aF44.045557203054905
aF44.0503471994134
aF44.07095255476086
aF44.084584163719285
aF44.097806824408956
aF44.11325713845938
aF44.128810302092006
aF44.13968464096777
aF44.150232749677265
aF44.157718545223744
aF44.163045764882675
aF44.16094754049238
aF44.158912262833795
aF44.13941805130162
aF44.11851141154694
aF44.07635002071754
aF44.035453471613025
aF43.9818110321496
aF43.93192339299809
aF43.8839112678287
aF43.837339506414395
aF43.81836062346899
aF43.8009443891018
aF43.78323356749873
aF43.76605407054376
aF43.74704092522482
aF43.718863850899545
aF43.6856655153094
aF43.65346312978697
aF43.62397823937934
aF43.59456893268365
aF43.565251506940186
aF43.53681360396902
aF43.514791963699246
aF43.49452051661799
aF43.46068503212173
aF43.42786461216036
aF43.394375891226005
aF43.36656960358934
aF43.33585362095165
aF43.30605911779309
aF43.27998266903362
aF43.23877339799213
aF43.17625142525368
aF43.11560511169739
aF43.04928426121181
aF42.98577650136273
aF42.92505620798927
aF42.866157523417016
aF42.83257578095188
aF42.8092688481194
aF42.78595990983494
aF42.763350239699015
aF42.73569007129001
aF42.702423826719496
aF42.6514282817532
aF42.60196260313589
aF42.55304019128009
aF42.5055498323405
aF42.452851074434975
aF42.401733279266615
aF42.34327249612352
aF42.28286760589508
aF42.214822323194
aF42.14881839897395
aF42.07447921892103
aF42.00795571346927
aF41.93216898959857
aF41.858655867444
aF41.788691946289795
aF41.73020002117909
aF41.6705599910936
aF41.61270916191067
aF41.5707483332365
aF41.541349564685845
aF41.50068728385018
aF41.4612448714396
aF41.424758165685375
aF41.37720461472246
aF41.33799069982892
aF41.29995320238219
aF41.2593843192499
aF41.22921906173355
aF41.21360505918578
aF41.19845947671444
aF41.176007463261136
aF41.171045355142965
aF41.161502530965
aF41.15224599151238
aF41.14348921430754
aF41.14250511699751
aF41.14252348334583
aF41.142541298703705
aF41.14815289272544
aF41.145865896960984
aF41.11942942966624
aF41.093786056390336
aF41.05973596727455
aF41.01997071433934
aF40.98373233531817
aF40.94858110766764
aF40.92355529121107
aF40.89992623830394
aF40.879223949001435
aF40.859142728378
aF40.83477913162869
aF40.82262463901915
aF40.81530634568133
aF40.80820760114364
aF40.80883597805939
aF40.81174461187546
aF40.81158421044637
aF40.811428621060145
aF40.81376434471397
aF40.80008262159913
aF40.79539386474241
aF40.79084577059139
aF40.786645391451835
aF40.77791138321394
aF40.781374108281064
aF40.78473295159617
aF40.77793111772549
aF40.773246455595576
aF40.76786056957742
aF40.762636260139814
aF40.75162388235432
aF40.757179232976284
aF40.75272621335782
aF40.748406784327905
aF40.735111265308106
aF40.71861193842958
aF40.688891452912245
aF40.66006258196043
aF40.63178733776394
aF40.59371740339218
aF40.5644812424519
aF40.53612216633982
aF40.5093823309957
aF40.48284522348345
aF40.47931985648946
aF40.47590025050529
aF40.46002458289441
aF40.431124361652905
aF40.42173402903447
aF40.41262540639458
aF40.40349118980577
aF40.39553536399275
aF40.40673327263172
aF40.417595244011515
aF40.41130240926658
aF40.40828882652746
aF40.40374899763714
aF40.39934536361352
aF40.4048012537633
aF40.4214140610099
aF40.436844037862286
aF40.4518111154091
aF40.461985464967874
a.