(lp0
F27.61441044205905
aF27.600000226972973
aF27.59148472416305
aF27.583224686437422
aF27.56653761333386
aF27.551776425172523
aF27.540718542381054
aF27.52999239607333
aF27.51198994656328
aF27.50006700158157
aF27.471969150008004
aF27.444714233981646
aF27.420566778810503
aF27.45282856388343
aF27.484122495404165
aF27.51447760897928
aF27.543922069147143
aF27.572483195509967
aF27.600187488081907
aF27.62706065187669
aF27.65312762075763
aF27.67841258057214
aF27.702938991592216
aF27.72672961028169
aF27.74980651041048
aF27.772191103535405
aF27.79390415886658
aF27.814965822537825
aF27.83539563629893
aF27.855212555647203
aF27.874434967415027
aF27.893080706829817
aF27.911167074062163
aF27.92871085027754
aF27.945728313206452
aF27.9622352522475
aF27.978246983117312
aF27.993778362061033
aF28.00884379963644
aF28.02345727408459
aF28.03763234429929
aF28.05138216240755
aF28.064719485972564
aF28.077656689830626
aF28.090205777572947
aF28.102378392682997
aF28.114185829339746
aF28.125639042896793
aF28.13674866004713
aF28.147524988682953
aF28.157978027459706
aF28.168117475073153
aF28.1779527392582
aF28.21397853213829
aF28.244900032135533
aF28.283537156928666
aF28.327883735220322
aF28.383182475056348
aF28.429602035711696
aF28.473361539444237
aF28.498513673478953
aF28.513694003291445
aF28.51892228897988
aF28.515247295693417
aF28.5013856293336
aF28.506887165727907
aF28.52686197028567
aF28.546237530706698
aF28.569203353769417
aF28.60423387438096
aF28.638213479374155
aF28.671173696217554
aF28.703145106555652
aF28.734157374583607
aF28.76423927457072
aF28.79341871755822
aF28.82626920388913
aF28.85813417563011
aF28.88904319821886
aF28.91902495012995
aF28.93568491741251
aF28.976060033069402
aF29.015223895256586
aF29.053212841578155
aF29.084610317105984
aF29.130620704050248
aF29.164376999891203
aF29.19712060685693
aF29.23473143966905
aF29.278045892662597
aF29.320060912066335
aF29.36081548088796
aF29.40034741264494
aF29.43869338644921
aF29.471203765431763
aF29.50273883304484
aF29.533327848629526
aF29.56299919374667
aF29.61520220048861
aF29.656837741762835
aF29.701249424931618
aF29.748714823740993
aF29.791472479360337
aF29.83354485992591
aF29.86814924493961
aF29.902755273296723
aF29.936323120803124
aF29.963762585894635
aF29.992256805195883
aF30.036563005514317
aF30.0795400198232
aF30.119290070166777
aF30.163956122982345
aF30.218770125311895
aF30.264247157220083
aF30.314917389194825
aF30.356028412718363
aF30.399880715822714
aF30.437276437076118
aF30.47355028669192
aF30.51948149785743
aF30.575667074633458
aF30.64081626902602
aF30.71793696980876
aF30.8011714562554
aF30.881908908108638
aF30.95936772787944
aF31.017369354305977
aF31.062058061804137
aF31.105406108077354
aF31.147453712962374
aF31.18188010901225
aF31.218193727453635
aF31.265940267071134
aF31.312254410500106
aF31.35717912962621
aF31.39264483124929
aF31.42018183412036
aF31.4468927269053
aF31.48535093699096
aF31.522655400774052
aF31.571626900021545
aF31.6306427341986
aF31.709555073498272
aF31.786100042618955
aF31.85888656515433
aF31.911306417717935
aF31.962153674704634
aF32.01147551398173
aF32.0674987535886
aF32.12184129600727
aF32.17455356215338
aF32.2256844603151
aF32.27528143153197
aF32.32339049361234
aF32.370056283830294
aF32.41532210034171
aF32.461303017738736
aF32.50590450761385
aF32.54916795279271
aF32.60584439271489
aF32.653967507281564
aF32.70064692841124
aF32.74592596690702
aF32.78984663424793
aF32.83244968156861
aF32.888794530668754
aF32.95130226037611
aF33.01592479708446
aF33.07970634124312
aF33.14157443907702
aF33.2015864939759
aF33.259798187227815
aF33.316263529682175
aF33.3710349118629
aF33.4241631525782
aF33.47569754607205
aF33.52568590776108
aF33.57417461859944
aF33.62120866811265
aF33.66683169614046
aF33.71108603332744
aF33.75401274039881
aF33.79565164625804
aF33.83604138494149
aF33.87521943146444
aF33.9132221365917
aF33.95008476056514
aF33.98584150581938
aF34.020525548715995
aF34.054169070325706
aF34.08680328628713
aF34.11845847576971
aF34.149164009567805
aF34.178948377351965
aF34.2078392141026
aF34.235863325750714
aF34.26304671404939
aF34.2894146006991
aF34.31499145074932
aF34.339800995298035
aF34.36386625351029
aF34.38720955397617
aF34.40985255542808
aF34.43181626683643
aF34.453121066902526
aF34.47378672296664
aF34.49383240934884
aF34.51327672513957
aF34.52998270780446
aF34.53285797526016
aF34.535646984692185
aF34.53835232384125
aF34.540976502815845
aF34.5435219564212
aF34.54599104641839
aF34.55822072832527
aF34.57008351977493
aF34.58159042748111
aF34.5927521279561
aF34.603578977416845
aF34.614081021393766
aF34.62426800405137
aF34.63414937722926
aF34.63363287764627
aF34.63165209258933
aF34.62426121940624
aF34.6145732018878
aF34.58428066403031
aF34.55489690230854
aF34.52639465343843
aF34.50022317633159
aF34.4631343145537
aF34.42659786570426
aF34.3911575103203
aF34.35678036559786
aF34.29781859916846
aF34.24062568573194
aF34.1962926748004
aF34.14770616435959
aF34.08933859340564
aF34.04068800073484
aF33.97948017801004
aF33.920108589966986
aF33.85292245774623
aF33.791319520496245
aF33.73156467136376
aF33.67360246770525
aF33.60328057569629
aF33.524224614534866
aF33.447132206042525
aF33.37813503514826
aF33.31120777938083
aF33.22111388490547
aF33.167508777889964
aF33.117409862594556
aF33.03994083753163
aF32.966894432581725
aF32.896039419780315
aF32.82731005736294
aF32.760642575818096
aF32.678208470029205
aF32.59307230905722
aF32.49527402931285
aF32.38978604495775
aF32.27047564040108
aF32.1522778674033
aF32.031577491885464
aF31.92516588477013
aF31.83119528861981
aF31.73794261570738
aF31.64462316294425
aF31.564632305012505
aF31.480903619992773
aF31.399686795523635
aF31.320799496282074
aF31.244278816017758
aF31.161759100971963
aF31.067305860612663
aF30.966578896187276
aF30.85696122215149
aF30.75063207833678
aF30.647492808836507
aF30.547447717421242
aF30.460779414233492
aF30.376711160141376
aF30.29516495367202
aF30.216065133396746
aF30.13933830772973
aF30.064913286832727
aF29.984556978835485
aF29.90661136007816
aF29.831004109883555
aF29.757665077194787
aF29.686526215486683
aF29.617521519629822
aF29.550586964648666
aF29.485660446316945
aF29.422681723535177
aF29.361592362436863
aF29.312558867850463
aF29.27822993179911
aF29.244930863829296
aF29.212630767898577
aF29.18129967484578
aF29.150908514584565
aF29.121429089131187
aF29.09283404644141
aF29.06509685503233
aF29.02549369036083
aF28.987078620629475
aF28.94981600299006
aF28.919312021755733
aF28.889723159958432
aF28.861021964015052
aF28.833181803949973
aF28.806176848686846
aF28.770097225489135
aF28.735099990987354
aF28.701152673520628
aF28.668223775577903
aF28.63628274457346
aF28.60529994449915
aF28.57524662842707
aF28.54609491183715
aF28.51781774674493
aF28.490388896605477
aF28.463782911970206
aF28.450492569503336
aF28.43760093731047
aF28.425096054083394
aF28.412966317353128
aF28.40120047272477
aF28.389787603435263
aF28.37871712022444
aF28.367978751509945
aF28.369391003358572
aF28.37076088765174
aF28.372089675416117
aF28.37337859954756
aF28.374628855955063
aF28.375841604670338
aF28.377017970924154
aF28.378159046190355
aF28.37926588919857
aF28.38033952691654
aF28.38138095550297
aF28.382391141231807
aF28.38337102138878
aF28.384321505141042
aF28.385243474380736
aF28.38613778454324
aF28.38700526540087
aF28.38784672183277
aF28.388662934571713
aF28.38945466092849
aF28.390222635494563
aF28.390967570823655
aF28.39169015809287
aF28.39239106774401
aF28.393070950105617
aF28.393730435996375
aF28.39437013731041
aF28.394990647585026
aF28.3955925425514
aF28.396176380668788
aF28.39674270364265
aF28.3972920369273
aF28.39782489021341
aF28.398341757900937
aF28.398843119557835
aF28.399329440365026
aF28.399801171548003
aF28.40025875079549
aF28.400702602665554
aF28.401133138979514
aF28.401550759204056
aF28.401955850821864
aF28.402348789691136
aF28.40272994039433
aF28.403099656576426
aF28.40345828127306
aF28.403806147228796
aF28.404143577205858
aF28.41497618011536
aF28.425483804937578
aF28.43567620101513
aF28.445562825210356
aF28.455152850679724
aF28.464455175385012
aF28.473478430349143
aF28.482230987664348
aF28.490720968260096
aF28.523560042186936
aF28.55541394389597
aF28.586312228553734
aF28.616283564671765
aF28.645355760706252
aF28.673555790859705
aF28.700909820108556
aF28.72744322847994
aF28.744508587699443
aF28.76106198614236
aF28.777118782631987
aF28.792693875226927
aF28.807801715044018
aF28.822456319666596
aF28.836671286150498
aF28.850459803639882
aF28.863834665604585
aF28.87680828171035
aF28.88939268933294
aF28.90159956472685
aF28.913440233858946
aF28.924925682917078
aF28.936066568503467
aF28.946873227522264
aF28.957355686770498
aF28.967523672241285
aF28.977386618147946
aF28.98695367567741
aF29.006240857938735
aF29.02494942473222
aF29.049894097735038
aF29.07243394552937
aF29.114891279623226
aF29.156074893694267
aF29.196022999343178
aF29.23477266182262
aF29.27235983442768
aF29.308819391854588
aF29.344185162558688
aF29.378489960141664
aF29.41176561379715
aF29.444042997842974
aF29.475352060367424
aF29.50572185101614
aF29.535180547945394
aF29.56375548396677
aF29.591473171907506
aF29.61835932921002
aF29.644438901793457
aF29.66973608719939
aF29.694274357043145
aF29.718076478791588
aF29.741164536887577
aF29.763559953240687
aF29.785283507103205
aF29.806355354349847
aF29.82679504617909
aF29.846621547253456
aF29.86585325329559
aF29.88450800815646
aF29.902603120371502
aF29.920155379220095
aF29.93718107030323
aF29.95369599065387
aF29.969715463393992
aF29.993659077971593
aF30.016884384111865
aF30.039412931067933
aF30.088076458631452
aF30.135280080368066
aF30.181067593452582
aF30.225481481144563
aF30.268562952205784
aF30.310351979135167
aF30.35088733525667
aF30.390206630694525
aF30.428346347269247
aF30.465341872346727
aF30.513105722578956
aF30.559436657304218
aF30.623868238975746
aF30.686366873197127
aF30.746990548391867
aF30.805795513330764
aF30.862836329321496
aF30.918165920832504
aF30.97183562459818
aF31.02389523725089
aF31.074393061524017
aF31.123375951068947
aF31.17088935392753
aF31.216977354700358
aF31.26168271545
aF31.305046915377154
aF31.34711018930649
aF31.387911565017948
aF31.427488899458062
aF31.465878913864973
aF31.503117227839677
aF31.53923839239514
aF31.57427592201394
aF31.608262325744175
aF31.6412291373625
aF31.67320694463228
aF31.704225417683965
aF31.734313336544098
aF31.763498617838426
aF31.791808340693926
aF31.81926877186376
aF31.8459053900985
aF31.8717429097862
aF31.896805303883266
aF31.921115826157422
aF31.94469703276335
aF31.967570803171103
aF31.989758360466624
aF32.01128029104328
aF32.032156563702635
aF32.05240654818221
aF32.0720490331274
aF32.09110224352423
aF32.10958385760916
aF32.12751102327154
aF32.14490037396405
aF32.16176804413578
aF32.17812968420237
aF32.19400047506695
aF32.209395142205594
aF32.22432796933008
aF32.238812811640834
aF32.25286310868226
aF32.26649189681245
aF32.279711821298726
aF32.29253514805042
aF32.30497377499956
aF32.31703924314023
aF32.328742747236674
aF32.34009514621023
aF32.35110697321458
aF32.36178844540879
aF32.37214947343718
aF32.38219967062472
aF32.39194836189664
aF32.401404592430396
aF32.41057713604814
aF32.43414961726284
aF32.4570149240411
aF32.47919427161601
aF32.50070823876367
aF32.52157678689691
aF32.541819278586146
aF32.56145449552471
aF32.58050065595511
aF32.598975431572605
aF32.61689596392157
aF32.634278880300066
aF32.651140309187205
aF32.667495895207736
aF32.683360813647646
aF32.698749784534364
aF32.713677086294474
aF32.72815656900178
aF32.742201667227874
aF32.755825412507185
aF32.76904044542812
aF32.78185902736142
aF32.794293051836725
aF32.80635405557777
aF32.81805322920658
aF32.82940142762653
aF32.84040918009388
aF32.851086699987206
aF32.86144389428374
aF32.87149037275137
aF32.88123545686497
aF32.890688188455165
aF32.899857338097654
aF32.92683856807297
aF32.95301036114902
aF33.015193203164394
aF33.04748282549868
aF33.065627394980616
aF33.08322762737809
aF33.100299852803644
aF33.11685991146643
aF33.13292316836933
aF33.148504527565144
aF33.16361844598509
aF33.17827894685243
aF33.19249963269375
aF33.206293697959836
aF33.219673941267935
aF33.23265277727679
aF33.24524224820538
aF33.25745403500611
aF33.269299468202824
aF33.273537715148485
aF33.26468667593097
aF33.25882375166151
aF33.24616568685183
aF33.24381778444516
aF33.250036790675026
aF33.25606922671798
aF33.28222492946364
aF33.30759596112692
aF33.3265843679107
aF33.34500312249096
aF33.36286931443381
aF33.380199520618376
aF33.397009820617406
aF33.413315811616464
aF33.429132622885554
aF33.44447492981657
aF33.459356967539655
aF33.47379254413105
aF33.487795053424705
aF33.50137748743955
aF33.49726088174818
aF33.493267774227554
aF33.48939445993255
aF33.485637345066394
aF33.48199294364622
aF33.47845787426865
aF33.47502885697241
aF33.459214033982676
aF33.44683416655053
aF33.436613384988355
aF33.437952172805375
aF33.44266262585494
aF33.45427959543038
aF33.46554805591855
aF33.476478462592084
aF33.48708095706541
aF33.48264362288768
aF33.47747566155247
aF33.46330690816649
aF33.456381925754044
aF33.44966469281397
aF33.443148976862105
aF33.43682873238879
aF33.43760608681232
aF33.42107829051724
aF33.405046328111005
aF33.373163506113706
aF33.3478957442471
aF33.32145189157832
aF33.297531305218264
aF33.29008519489161
aF33.28286246787476
aF33.274443730233976
aF33.264843174492
aF33.25824046364919
aF33.229804610531566
aF33.19833327416482
aF33.171238272770054
aF33.1367903836812
aF33.10197865122314
aF33.06821127073882
aF33.03545691166903
aF33.00368518337133
aF32.972866606922565
aF32.94291686955033
aF32.91386562429926
aF32.88247341097516
aF32.84017606717695
aF32.783095578011995
aF32.730571778773104
aF32.684024490579816
aF32.65017887786632
aF32.613902763037316
aF32.579266079206484
aF32.52530394365764
aF32.47296067217526
aF32.398002938344796
aF32.334622548341834
aF32.2933734658596
aF32.244190892237164
aF32.1964837958234
aF32.149409531973404
aF32.10374749603891
aF32.052126768463765
aF32.00461921538849
aF31.950917883861035
aF31.902989404730256
aF31.875331006216314
aF31.84850235965779
aF31.82247857249602
aF31.81560642803423
aF31.825965177101455
aF31.837065303196816
aF31.847832425509317
aF31.849171608262445
aF31.838828577360225
aF31.824006597165894
aF31.809629276377393
aF31.795683275212546
aF31.782155654082644
aF31.76903386158664
aF31.756305722865516
aF31.743959428306024
aF31.73761562961567
aF31.73146214488603
aF31.72549326469828
aF31.71970345091616
aF31.714087331547507
aF31.70863969575991
aF31.703355489045943
aF31.698229808533394
aF31.693257898436222
aF31.688435145641964
aF31.683757075431537
aF31.67921934732742
aF31.674817751066428
aF31.670548202693265
aF31.666406740771297
aF31.662389522706988
aF31.65849282118461
aF31.654713020707902
aF31.651046614245494
aF31.64749019997696
aF31.644040478136482
aF31.640694247951217
aF31.63744840467151
aF31.644779061033137
aF31.666310130196333
aF31.687195267284633
aF31.707453850260283
aF31.727104675746663
aF31.746165976468454
aF31.76465543816859
aF31.78259021601772
aF31.799986950531377
aF31.809762648711384
aF31.819245075945993
aF31.828443030363562
aF31.837365046148605
aF31.846019401460097
aF31.854414126112243
aF31.862557009024826
aF31.87045560545003
aF31.878117243982476
aF31.885549033358952
aF31.892757869054133
aF31.89677399874434
aF31.90066964454384
aF31.888786758091523
aF31.877260358232775
aF31.86607975036979
aF31.85523456074269
aF31.84471472680441
aF31.834510487884273
aF31.812903234512586
aF31.784752170946682
aF31.757445639287756
aF31.730958303578596
aF31.705265587940712
aF31.680343653771967
aF31.65616937762828
aF31.632720329768908
aF31.609974753345316
aF31.587911544214432
aF31.566510231357473
aF31.545750957886224
aF31.52561446261911
aF31.506082062210012
aF31.487135633813185
aF31.468757598268265
aF31.450930903789693
aF31.44492658965988
aF31.447437311963295
aF31.449872712597607
aF31.452753875689105
aF31.458297180805282
aF31.463674186767975
aF31.468889882551785
aF31.460894225953734
aF31.453138439053625
aF31.44408243922761
aF31.421799086568168
a.