(lp0
F26.336857555865862
aF26.34783477921583
aF26.34701940685415
aF26.33785031288341
aF26.328956291731792
aF26.316325072159042
aF26.31832382448083
aF26.31139543745101
aF26.304674902032087
aF26.290672452228055
aF26.29206210726719
aF26.301287198022067
aF26.3102355360543
aF26.385642605331096
aF26.45878746252959
aF26.529737974012125
aF26.598559970150188
aF26.665317306404106
aF26.730071922570406
aF26.79288390025172
aF26.853811518602594
aF26.91291130840294
aF26.970238104509278
aF27.025845096732425
aF27.079783879188877
aF27.132104498171635
aF27.18285549858491
aF27.232083968985787
aF27.27983558527464
aF27.326154653074827
aF27.371084148841007
aF27.414665759734202
aF27.456939922300602
aF27.49794585999001
aF27.534094504016352
aF27.569158688721902
aF27.602832266087113
aF27.635495636131367
aF27.667179105074293
aF27.697912069948934
aF27.727723045877337
aF27.756639692527887
aF27.78468883977892
aF27.81189651261242
aF27.838287955260917
aF27.86388765462996
aF27.88871936301793
aF27.91280612015426
aF27.9361702745765
aF27.958833504366076
aF27.980816837261962
aF28.002140670170974
aF28.022824788092713
aF28.058904622594074
aF28.102611320918577
aF28.14959437779734
aF28.197959239462932
aF28.256151059167827
aF28.30885883690857
aF28.347586222640608
aF28.378212200338027
aF28.39786693996748
aF28.403724956928112
aF28.40502205093988
aF28.39880437275297
aF28.40327339873184
aF28.417162309375623
aF28.43063455270009
aF28.465037072646222
aF28.50363378202573
aF28.53830580372324
aF28.571937664769823
aF28.60456056998501
aF28.63620478804374
aF28.654848951469102
aF28.680014771067874
aF28.714351995168006
aF28.747659102545132
aF28.779966996700946
aF28.811305654032083
aF28.841704151643288
aF28.883388765766817
aF28.92382284146664
aF28.96304389489547
aF29.001088316721432
aF29.037991405892615
aF29.073787402388664
aF29.10850951898983
aF29.142189972092964
aF29.20119781241992
aF29.2416359803947
aF29.282212238849535
aF29.33257032994706
aF29.38236076518468
aF29.42176020376125
aF29.45288890493908
aF29.48517682381468
aF29.51649610512401
aF29.55522193995213
aF29.60346738537692
aF29.650265467438967
aF29.709591511091055
aF29.75275348123367
aF29.794620592272004
aF29.83252330160851
aF29.869288929664922
aF29.90495158887964
aF29.939544368317918
aF29.97309936437305
aF30.005647710546523
aF30.053564177299066
aF30.100043150049032
aF30.148545846590533
aF30.20292034612776
aF30.251370955455755
aF30.29836804650391
aF30.343955224820622
aF30.388174787787833
aF30.417974330709846
aF30.447256683184285
aF30.49251266899521
aF30.548901996208247
aF30.61304682826355
aF30.675267315357193
aF30.735621187838024
aF30.79416444414443
aF30.85095140276165
aF30.906034752620346
aF30.945328059653267
aF30.99112088828703
aF31.035539932061777
aF31.078626404523284
aF31.120420282810947
aF31.17517986011329
aF31.22585470893454
aF31.275009312291154
aF31.31737092486397
aF31.3584616890596
aF31.39831973032936
aF31.436982030361026
aF31.474484461391743
aF31.52129834479913
aF31.586493744872858
aF31.652959037011517
aF31.718393218468393
aF31.78186437448156
aF31.830313458539464
aF31.875639012532268
aF31.905231052804208
aF31.950536847985862
aF31.994483469312065
aF32.0572233030523
aF32.11441002056275
aF32.18300901134443
aF32.23238847219577
aF32.28028654922157
aF32.326747683936595
aF32.37410143093163
aF32.420034565516815
aF32.464589706064444
aF32.52095827694848
aF32.57563579070599
aF32.61631575866855
aF32.65662478336418
aF32.71207007281003
aF32.7658520035725
aF32.829747846211006
aF32.89172681357036
aF32.95625669761623
aF33.029059452275874
aF33.09967812429573
aF33.168178236154986
aF33.234623344658466
aF33.29907509990684
aF33.36159330249776
aF33.422235959010955
aF33.48105933582875
aF33.53811801134202
aF33.59346492658989
aF33.64715143438032
aF33.699227346937036
aF33.74974098211705
aF33.79873920824167
aF33.846267487582544
aF33.892369918543196
aF33.93708927657503
aF33.98046705386591
aF34.02254349783806
aF34.06335764849104
aF34.102947374624435
aF34.14134940897383
aF34.178599382292745
aF34.21473185641209
aF34.24978035630785
aF34.28377740120674
aF34.316754534758665
aF34.34874235430403
aF34.379770539263035
aF34.40986787867327
aF34.439062297901195
aF34.454691292785846
aF34.45221500357872
aF34.45478281433863
aF34.46083221904013
aF34.48436288797734
aF34.50718763684643
aF34.53682535853231
aF34.5620355044156
aF34.583559208784514
aF34.5990786241023
aF34.598043777622316
aF34.594269503433715
aF34.59060845747077
aF34.58001226870686
aF34.57800160309469
aF34.576051257450885
aF34.587275562321054
aF34.6010022070037
aF34.63204795461744
aF34.66216232980277
aF34.68635639781572
aF34.70990682701302
aF34.73458968814034
aF34.75853206343383
aF34.76415834788596
aF34.756648341117945
aF34.7387577526362
aF34.728775388731385
aF34.690949241594474
aF34.654257878871675
aF34.61866725703056
aF34.58414435384467
aF34.54378431927125
aF34.50207633238171
aF34.46674680699585
aF34.434351826700464
aF34.38565637153722
aF34.33842178002888
aF34.29260422626579
aF34.248161199115586
aF34.19146558551336
aF34.136470840319205
aF34.071972653634994
aF34.009409412551314
aF33.937474415319926
aF33.87091031601625
aF33.806343139691684
aF33.740290018657376
aF33.67067999237116
aF33.58929506891228
aF33.510351693157155
aF33.433776618674685
aF33.35949879642669
aF33.27625669584102
aF33.21179788141135
aF33.13857551707239
aF33.04988092140607
aF32.978156356532594
aF32.917726812450866
aF32.86981060928208
aF32.805599302091686
aF32.738409006121096
aF32.64179456121103
aF32.54340675816328
aF32.433086085954955
aF32.318827511483406
aF32.18864968039307
aF32.06636272924862
aF31.95766678451532
aF31.86080603064342
aF31.767544453600188
aF31.677080723868254
aF31.593860304917637
aF31.50392346348186
aF31.409996421657816
aF31.33048448195933
aF31.266839116335106
aF31.187879163660725
aF31.097181307137603
aF31.009204386310177
aF30.894963846416516
aF30.79242263505084
aF30.692957660026135
aF30.596476634252173
aF30.50289003925143
aF30.412111042100708
aF30.324055414864507
aF30.238641456445393
aF30.15578991677885
aF30.075423923302306
aF29.997468909630058
aF29.921852546367976
aF29.84850467400376
aF29.777357237810467
aF29.708344224702973
aF29.641401601988704
aF29.576467257955866
aF29.513480944244012
aF29.452384219943514
aF29.39312039737203
aF29.33563448947769
aF29.297467271772984
aF29.270538642444244
aF29.251665654877854
aF29.245423590521213
aF29.218280351255487
aF29.183512519881436
aF29.149787723448608
aF29.117074670908764
aF29.085343009945117
aF29.054563298810375
aF29.02470697900968
aF28.995746348803003
aF28.968485429775704
aF28.948397617383907
aF28.932009546435758
aF28.90227158293659
aF28.86127793103931
aF28.81355694619262
aF28.763468763105468
aF28.723143021841828
aF28.685561790909013
aF28.64910799690418
aF28.613747816719496
aF28.575776142280137
aF28.538943618073958
aF28.510170580590447
aF28.482260734231442
aF28.46398740395109
aF28.44626227357915
aF28.42906889711837
aF28.41239132195141
aF28.39621407403946
aF28.380522143564868
aF28.37203329123602
aF28.363799104477035
aF28.367938230279833
aF28.371953182308545
aF28.375847685776396
aF28.379625354140213
aF28.383289692453115
aF28.386844100616628
aF28.390291876535237
aF28.393636219176287
aF28.396880231538105
aF28.400026923529072
aF28.403079214760307
aF28.406039937254608
aF28.40891183807408
aF28.411697581868964
aF28.414399753350004
aF28.417020859686613
aF28.41956333283312
aF28.422029531785235
aF28.421837368767587
aF28.42165097064047
aF28.421470164457165
aF28.42129478245936
aF28.42112466192149
aF28.420959644999755
aF28.420799578585672
aF28.42064431416401
aF28.420493707675
aF28.42034761938066
aF28.42020591373515
aF28.420068459259003
aF28.41993512841714
aF28.419805797500537
aF28.41968034651143
aF28.419558659051997
aF28.419440622216346
aF28.419326126485764
aF28.4192150656271
aF28.419107336594195
aF28.419002839432277
aF28.41890147718522
aF28.418803155805573
aF28.418707784067315
aF28.41093552674387
aF28.40339643714013
aF28.39252068465503
aF28.38197120474448
aF28.37173820923125
aF28.361812203583415
aF28.36957864645012
aF28.37711209603082
aF28.3844195421241
aF28.391507764834582
aF28.39838334086375
aF28.405052649612042
aF28.411521879097887
aF28.417797031699155
aF28.423883929722386
aF28.45424865203834
aF28.48370243268482
aF28.5122725999119
aF28.539985662122167
aF28.566867332466128
aF28.59294255269977
aF28.618235516326404
aF28.642769691044236
aF28.666567840520536
aF28.689652045512545
aF28.712043724354796
aF28.73376365283178
aF28.75483198345445
aF28.775268264158445
aF28.795091456441316
aF28.814319952955703
aF28.83297159457466
aF28.851063686945047
aF28.86861301654432
aF28.885635866255615
aF28.902148030475573
aF28.91816482976893
aF28.933701125083488
aF28.94877133153861
aF28.963389431800078
aF28.9775689890537
aF28.991323159589715
aF29.00466470500965
aF29.034866739904086
aF29.064162713751692
aF29.09257980838387
aF29.12014439017708
aF29.17054348396448
aF29.219430604938253
aF29.266851112282815
aF29.31284900440704
aF29.35746695976754
aF29.40074637646722
aF29.442727410665913
aF29.483449013838644
aF29.522948968916193
aF29.561263925341418
aF29.598429433073886
aF29.63447997557438
aF29.669449001799858
aF29.70336895723857
aF29.73627131401412
aF29.76818660008641
aF29.799144427576525
aF29.829173520241937
aF29.858301740127388
aF29.886556113416276
aF29.913962855506497
aF29.94054739533401
aF29.9663343989667
aF29.99134779249041
aF30.015610784208405
aF30.03914588617486
aF30.061974935082326
aF30.084119112522565
aF30.105598964639597
aF30.126434421193117
aF30.146644814050035
aF30.166248895121242
aF30.185264853760316
aF30.21572428070451
aF30.24526992484038
aF30.27392919965217
aF30.318678402024393
aF30.36208512832545
aF30.404189652837477
aF30.445031041614143
aF30.48464718872751
aF30.523074851427477
aF30.560349684246443
aF30.59650627208084
aF30.631578162280206
aF30.66559789577359
aF30.69859703726217
aF30.74308030631184
aF30.786229077290017
aF30.82808338513885
aF30.868682063752217
aF30.908062782007185
aF30.946262078714504
aF31.00928379081558
aF31.070414851553625
aF31.129711980469526
aF31.18723019551795
aF31.243022864114923
aF31.29714175265399
aF31.34963707453688
aF31.400557536763284
aF31.449950385122897
aF31.49786144803172
aF31.54433517905328
aF31.589414698144193
aF31.63314183166238
aF31.675557151175017
aF31.71670001110228
aF31.75660858523172
aF31.79531990213728
aF31.83286987953567
aF31.86929335761211
aF31.90462413134626
aF31.938894981868383
aF31.972137706874843
aF32.004383150131105
aF32.03566123008968
aF32.0660009676495
aF32.095430513082526
aF32.12397717215256
aF32.15166743145049
aF32.17852698296949
aF32.20458074794291
aF32.229852899967135
aF32.25436688743063
aF32.27814545527022
aF32.301210666074624
aF32.323583920554896
aF32.345285977400756
aF32.36633697254124
aF32.386756437827515
aF32.4065633191552
aF32.42577599404305
aF32.44441228868427
aF32.46248949448625
aF32.480024384114174
aF32.49703322705326
aF32.51353180470417
aF32.52953542502556
aF32.5450589367373
aF32.56011674309769
aF32.574722815267265
aF32.58889070527176
aF32.602633558576116
aF32.61596412628134
aF32.62889477695541
aF32.64143750810926
aF32.65360395732849
aF32.66540541307115
aF32.67685282514152
aF32.687956814849784
aF32.6987276848668
aF32.70917542878331
aF32.71930974038232
aF32.72914002263336
aF32.738675396416866
aF32.74792470898687
aF32.756896542179774
aF32.76559922037689
aF32.774040818228094
aF32.78222916814376
aF32.79017186756195
aF32.7978762859976
aF32.805349571880186
aF32.81259865918629
aF32.819630273873216
aF32.82645094011953
aF32.833066986378455
aF32.83948455124961
aF32.84570958917463
aF32.851747875961905
aF32.857605014145555
aF32.8632864381837
aF32.8687974195007
aF32.87414307137819
aF32.87932835369936
aF32.884358077550885
aF32.88923690968687
aF32.89396937685878
aF32.898559870015525
aF32.90301264837757
aF32.907331843388754
aF32.9115214625496
aF32.91558539313562
aF32.91952740580406
aF32.94993670871995
aF32.979433732548365
aF33.01868422656345
aF33.04237543962055
aF33.06535591628594
aF33.08633324084689
aF33.11124818040888
aF33.12342794318205
aF33.15256553186555
aF33.181061831247895
aF33.19598338659414
aF33.21045729528
aF33.22153274986816
aF33.232275940818674
aF33.24269683604067
aF33.252805104406015
aF33.262610124720396
aF33.27212099442534
aF33.281346538039145
aF33.28077690975117
aF33.26399086680326
aF33.24770840514379
aF33.22118655951698
aF33.209238190000555
aF33.21724334254656
aF33.22609661221448
aF33.23591622149365
aF33.24544124249445
aF33.254680512865235
aF33.263642605124886
aF33.272335834616754
aF33.28076826722386
aF33.288947726852754
aF33.29688180269278
aF33.30457785625761
aF33.3120430282155
aF33.31928424501464
aF33.326308225309816
aF33.333121486196134
aF33.33973034925586
aF33.3461409464238
aF33.35235922567669
aF33.358390956552
aF33.364241735501054
aF33.36991699108164
aF33.3754219889948
aF33.380761836970564
aF33.36721278621113
aF33.34858921718008
aF33.33052435521996
aF33.33362869793085
aF33.35007338124233
aF33.3684697981824
aF33.389589166241194
aF33.40579160357538
aF33.421507967789545
aF33.42694156347649
aF33.43221215129283
aF33.42633053276246
aF33.417119464069145
aF33.408184727436634
aF33.39214379112183
aF33.38168609915531
aF33.38657244468515
aF33.377924536003924
aF33.36354178945838
aF33.33290410362066
aF33.298792763328876
aF33.26570476324584
aF33.240967898894745
aF33.2239938560573
aF33.20752903450497
aF33.19155815759922
aF33.17606640700064
aF33.16103940892002
aF33.13703757269662
aF33.10306410806974
aF33.070109847381666
aF33.03814421451423
aF33.00713755063283
aF32.97706108666786
aF32.94788691662184
aF32.9195879716772
aF32.8921379950809
aF32.86551151778249
aF32.839683834803026
aF32.805353474660635
aF32.75517962739708
aF32.70513623217981
aF32.65639090873765
aF32.609107944998755
aF32.57358465537343
aF32.53418061150893
aF32.495958688960364
aF32.458883424088256
aF32.40685756967939
aF32.356392490902785
aF32.30744136448948
aF32.27018890821332
aF32.22575169638117
aF32.17958549912282
aF32.12862280222495
aF32.080813910964466
aF32.01757558801434
aF31.971779626177096
aF31.92735754319497
aF31.884268122702306
aF31.848824943005088
aF31.826402889694265
aF31.80465349798277
aF31.78355658802262
aF31.76309258536127
aF31.743242502779765
aF31.723987922675704
aF31.70531097997476
aF31.68719434555485
aF31.664319261876848
aF31.642130430709187
aF31.60379642636477
aF31.566612442150685
aF31.5447948868339
aF31.52400474050759
aF31.50383829857107
aF31.506750932564465
aF31.50957618753806
aF31.512316684862444
aF31.5149749672671
aF31.517553501199615
aF31.520054679114153
aF31.522480821691257
aF31.524834179991046
aF31.527116937541845
aF31.529331212366117
aF31.53147905894566
aF31.53356247012782
aF31.53558337897451
aF31.537543660555805
aF31.53944513368966
aF31.541289562629498
aF31.54307865870114
aF31.544814081890635
aF31.546497442384446
aF31.54813030206344
aF31.549714175952065
aF31.55125053362403
aF31.55274080056584
aF31.573711718258018
aF31.60190272134039
aF31.629247994330292
aF31.655772909130494
aF31.68150207648669
aF31.706459368822202
aF31.730667942387647
aF31.75415025874613
aF31.76862169904366
aF31.78078281285959
aF31.790063306961123
aF31.799065386239608
aF31.807797403139737
aF31.821317637797225
aF31.842993608676704
aF31.855655468697883
aF31.860831894039162
aF31.866343477840434
aF31.875453759260406
aF31.885443203762684
aF31.884293489458585
aF31.88317826658361
aF31.882096500394884
aF31.88104718719182
aF31.88002935338485
aF31.879042054592087
aF31.865245456877727
aF31.851862757094796
aF31.820169958419232
aF31.795044871964777
aF31.759971506884842
aF31.725950342757304
aF31.692949813553597
aF31.660939300225998
aF31.62988910229823
aF31.59977041030829
aF31.570555279078054
aF31.535612541066477
aF31.501718085195247
aF31.468840463000152
aF31.43694916947091
aF31.406014614747548
aF31.38387550015838
aF31.362400559006886
aF31.341569866089937
aF31.33899671881331
aF31.33650076595498
aF31.3340796916824
aF31.331731249637997
aF31.329453260854926
aF31.327243611735348
aF31.325100252089356
aF31.323021193232744
aF31.321004506141833
aF31.319048319663647
aF31.317150818779808
a.