(lp0
F42.62391173464139
aF42.620541158743464
aF42.62063969851432
aF42.596136231884195
aF42.57236786925298
aF42.55070820360161
aF42.52562208092748
aF42.484003892541665
aF42.443634249807424
aF42.41085055481792
aF42.369011779113286
aF42.33326097139713
aF42.29858268791246
aF42.27364408132176
aF42.24945363292879
aF42.22512520421654
aF42.201526628365656
aF42.186057337195244
aF42.16880390841513
aF42.14903550446703
aF42.12986015263738
aF42.111260061362614
aF42.0884240343372
aF42.07634782098764
aF42.064633894038565
aF42.050739001334094
aF42.03382549767153
aF42.012763911985964
aF41.992334173870965
aF41.951259925693826
aF41.908527253957686
aF41.87069679008529
aF41.83400124012907
aF41.805432680782786
aF41.78414359973336
aF41.759560665206365
aF41.73571521871518
aF41.70564894024154
aF41.669932856048234
aF41.636998381041806
aF41.60505194028557
aF41.57928732326395
aF41.56200038686301
aF41.537650620133675
aF41.51403134640621
aF41.482740773325595
aF41.45743805677511
aF41.42500799794536
aF41.3935508408805
aF41.37718484549937
aF41.36708648323131
aF41.35361853930339
aF41.34055463369331
aF41.318008445044015
aF41.29180445493356
aF41.26928707790185
aF41.24744522218109
aF41.233346752574235
aF41.24201532148319
aF41.245921216884796
aF41.249709935424356
aF41.2524461447245
aF41.246488565020876
aF41.22896947005137
aF41.211975947930945
aF41.19859584010788
aF41.18517202429406
aF41.18463603883389
aF41.18411613293752
aF41.19280946127521
aF41.207891864283205
aF41.230781915861726
aF41.25298526589289
aF41.277575785148855
aF41.302906314356065
aF41.32613776617678
aF41.34867227444287
aF41.37725817696017
aF41.39631718022294
aF41.417081294856224
aF41.437222486050516
aF41.457452023852504
aF41.47734005607698
aF41.49719671688205
aF41.516457677862974
aF41.53940092784849
aF41.55859465672093
aF41.55670969562447
aF41.554881283360906
aF41.56665504937557
aF41.59009083071442
aF41.63301081216959
aF41.674643194181094
aF41.73826716914754
aF41.79853155349349
aF41.84481502106581
aF41.88970998461097
aF41.91811410061608
aF41.93312108756116
aF41.957436497050224
aF41.98102244425461
aF42.00414329641331
aF42.02742542405308
aF42.06461500147169
aF42.10068889156774
aF42.128663678993696
aF42.14619780587821
aF42.16652406227128
aF42.186240530972555
aF42.203718868456555
aF42.232042667741375
aF42.266553670371756
aF42.300029342923224
aF42.331857051301164
aF42.35322430100551
aF42.370830481396
aF42.38790847637477
aF42.411922550845496
aF42.44005470654141
aF42.484742085606946
aF42.528088843300516
aF42.564465986263556
aF42.5985957995717
aF42.63732421812683
aF42.67489078412531
aF42.71050325238373
aF42.745457268589035
aF42.77936266430818
aF42.81225089815575
aF42.83399155168526
aF42.85218557796528
aF42.8655530726466
aF42.878519542487474
aF42.90053749178813
aF42.93242535871008
aF42.96722373700803
aF43.00097816395704
aF43.034038312649955
aF43.07069392586649
aF43.102514519866865
aF43.133380496047224
aF43.15624250326429
aF43.18574618473309
aF43.21785420271683
aF43.248998980161055
aF43.279615646231534
aF43.31139436136296
aF43.33474517990308
aF43.357395473886996
aF43.38277904108765
aF43.4216988967039
aF43.47656310420433
aF43.52978138547975
aF43.59579747686626
aF43.64458639115252
aF43.696232195960334
aF43.746328626623914
aF43.778935273614685
aF43.81027820898442
aF43.85557186423558
aF43.899506709829204
aF43.930264983972414
aF43.970732421231965
aF44.01773107697636
aF44.06331977304842
aF44.09670791993228
aF44.152160218869724
aF44.22150927248631
aF44.2887778544944
aF44.350649206938215
aF44.428859575445024
aF44.49133869262062
aF44.55194343628095
aF44.591185947576406
aF44.640729754059336
aF44.67773239607083
aF44.713624958821974
aF44.747982846478855
aF44.799460689184734
aF44.83781600888808
aF44.87502066900033
aF44.92284657668422
aF44.97718106712602
aF45.02597339127825
aF45.073301945705914
aF45.12704472857053
aF45.170629498613934
aF45.21755824081663
aF45.26307912075325
aF45.306995201720426
aF45.34923308344527
aF45.413525243707326
aF45.47588863916152
aF45.53973145823092
aF45.602273674091066
aF45.65990225075011
aF45.71580197010937
aF45.75556243642777
aF45.79784793354425
aF45.83048667692132
aF45.862146257997075
aF45.887774761505185
aF45.910604201542725
aF45.91503322867335
aF45.91932938499006
aF45.92681644218545
aF45.938940672081166
aF45.956538764247846
aF45.97360891364952
aF45.99765057107969
aF46.02041671835677
aF46.04960535803574
aF46.07791833852435
aF46.10631239710041
aF46.13072987059914
aF46.15636775137906
aF46.181236495735575
aF46.20598997350675
aF46.21678421165351
aF46.23101031869479
aF46.244809642524835
aF46.26039659335073
aF46.26288755500767
aF46.26963860811965
aF46.27618712963827
aF46.279525138929515
aF46.27839770408477
aF46.27507075087891
aF46.27184360626923
aF46.265861004945805
aF46.249032850019034
aF46.23297889371445
aF46.21740655609901
aF46.20276898708727
aF46.18013818110375
aF46.166151064866625
aF46.15258356211661
aF46.1311445954197
aF46.10938227226606
aF46.087534078821236
aF46.06634133117976
aF46.028909051467146
aF45.98095735880639
aF45.92784174953833
aF45.876319608548314
aF45.82788128803905
aF45.77485418952247
aF45.72602956609059
aF45.67866968136166
aF45.631981823277044
aF45.56407512740521
aF45.510874319737425
aF45.45926953629968
aF45.416054961853064
aF45.366696518835724
aF45.32062000248296
aF45.27592578162078
aF45.22326991346109
aF45.14997824258942
aF45.06281320111892
aF44.978263110892534
aF44.89818081477148
aF44.80496744598568
aF44.71016240085092
aF44.6182015070702
aF44.54102665528121
aF44.45385198364004
aF44.36825321514149
aF44.2852224096979
aF44.19463404368292
aF44.10497187182602
aF44.01412095382379
aF43.92599556336164
aF43.8308450991213
aF43.734619489702816
aF43.643487950479106
aF43.55509035743211
aF43.45931198982022
aF43.37416056872475
aF43.29447949972034
aF43.21718886278606
aF43.13082088792289
aF43.06595232534157
aF43.00238511592233
aF42.94072492278566
aF42.887523595764485
aF42.83093031053015
aF42.76409187065662
aF42.699258583979294
aF42.62356332786907
aF42.53122443289858
aF42.437728784678775
aF42.34703800590556
aF42.260813505598506
aF42.18204136508755
aF42.116422963574934
aF42.052773114107694
aF41.995766611843145
aF41.9333970742654
aF41.87852260217295
aF41.82529436424327
aF41.768830158925894
aF41.6986090450256
aF41.628068030369406
aF41.559643246152895
aF41.47817153976684
aF41.40976800950637
aF41.35294965040445
aF41.29783584207558
aF41.24079521527505
aF41.19508987811725
aF41.12875950764148
aF41.06441904827999
aF41.00427545804958
aF40.949295030337
aF40.90410784879869
aF40.86027628270652
aF40.834895377835146
aF40.80077548977094
aF40.74667757200505
aF40.69420259177213
aF40.64508673680931
aF40.59397998394132
aF40.549491461319995
aF40.506337594377314
aF40.488230071337874
aF40.45754824090197
aF40.42500868745055
aF40.39344532060267
aF40.358711292805815
aF40.32851541787916
aF40.29572928716401
aF40.26392674037031
aF40.234048194405695
aF40.201777516896655
aF40.16510099732436
aF40.129524773339234
aF40.103455468511356
aF40.093337775598904
aF40.081525729807765
aF40.070068045390364
aF40.05484192967995
aF40.043078452616435
aF40.01564289205309
aF39.98903039830664
aF39.966503158183905
aF39.9396786199175
aF39.909513563044534
aF39.88025345787776
aF39.83121003689732
aF39.79484893688095
aF39.76726741061241
aF39.740513330131925
aF39.71328323978529
aF39.69447118288555
aF39.653287682170806
aF39.6133396864775
aF39.5790259376789
aF39.542317067820655
aF39.5114092394666
aF39.48142864596316
aF39.46814004932206
aF39.44306252016675
aF39.42357895888179
aF39.40467990443538
aF39.38497732065918
aF39.369147333683415
aF39.35643245322907
aF39.34409901918835
aF39.32000253697162
aF39.29235890001081
aF39.27316407689209
aF39.25454509846692
aF39.23616606770781
aF39.230930960407235
aF39.240646873865494
aF39.25007130992
aF39.24414389777752
aF39.231241568120765
aF39.199098734081886
aF39.167920185064176
aF39.137742056765354
aF39.115954328960434
aF39.10544152058129
aF39.09524409645351
aF39.10742399669463
aF39.116636972637195
aF39.12213655516179
aF39.127471150210646
aF39.124779139616976
aF39.10663591008748
aF39.08861906779964
aF39.07114273078044
aF39.04714471355918
aF39.02472841775086
aF39.01330548653728
aF39.002225243260106
aF38.998944561510754
aF39.0141556544404
aF39.03596848171099
aF39.057126924163455
aF39.075169597151486
aF39.099367641480846
aF39.12415784265154
aF39.148204337787114
aF39.16820573476364
aF39.19483993527136
aF39.21506871341326
aF39.2346906282109
aF39.25535619806974
aF39.28297537014105
aF39.31730288668001
aF39.3506005777228
aF39.38620874744245
aF39.42666344441674
aF39.476355003561004
aF39.52455581593094
aF39.57492911183862
aF39.62778724808065
aF39.67982749382334
aF39.730306532193744
aF39.762310049251845
aF39.788096723714716
aF39.80355826121515
aF39.81855595259057
aF39.83165048009302
aF39.855005842336844
aF39.88818636245553
aF39.92037146697065
aF39.97308937633077
aF40.03530124667014
aF40.10955978231189
aF40.18159056188439
aF40.255584614017124
aF40.31605000743479
aF40.380315018799216
aF40.44265207982271
aF40.49644347962477
aF40.53997295517384
aF40.58609880467366
aF40.63084087868849
aF40.670709107154345
aF40.71758596058777
aF40.77407875875337
aF40.828876772974
aF40.89168634331563
aF40.944597797749246
aF40.99218698824647
aF41.038348503028786
aF41.07882902306949
aF41.12638828056851
aF41.17246380703781
aF41.21715706771302
aF41.27202044634558
aF41.3253232504739
aF41.36982674950773
aF41.41299514357054
aF41.45944183195961
aF41.49487758465011
aF41.54120736523355
aF41.58614725239948
aF41.63228846299467
aF41.68703811491266
aF41.7462298084143
aF41.803645751110885
aF41.85508381224763
aF41.90934921001189
aF41.96039029122389
aF42.00990013999953
aF42.06994221190042
aF42.13352786949019
aF42.1848788433995
aF42.23468928809154
aF42.28932678628497
aF42.32732432943377
aF42.36520809803251
aF42.401955353573285
aF42.4526763867035
aF42.49640845017249
aF42.5518734154585
aF42.605674431785935
aF42.66327532334071
aF42.72884553238683
aF42.801879317269034
aF42.872722088604775
aF42.95482464678102
aF43.03830548066423
aF43.10897865524738
aF43.17753163459303
aF43.2467731661804
aF43.30653779139538
aF43.36143351956976
aF43.414682375898906
aF43.46854530398832
aF43.51795138294705
aF43.56372982602348
aF43.608134915807625
aF43.6557748960371
aF43.69814144927052
aF43.7348515807911
aF43.77046040836606
aF43.80977450727442
aF43.83378838104453
aF43.85960688144093
aF43.88465082682544
aF43.91486871966952
aF43.9499560070069
aF43.99281563214723
aF44.03438946853334
aF44.07849146504504
aF44.11455020108319
aF44.12308461560531
aF44.13136299769177
aF44.14317867445599
aF44.1630797426084
aF44.18154834507692
aF44.19946288947138
aF44.22728374057862
aF44.24221897357421
aF44.23632169759354
aF44.230601339892274
aF44.22815320121065
aF44.21783247325073
aF44.20877705964538
aF44.199993308448185
aF44.20733201728203
aF44.216257298818824
aF44.235624462897356
aF44.254410612053526
aF44.28331212415953
aF44.29864400343662
aF44.31995231631006
aF44.34062137979729
aF44.36891997855783
aF44.39503452754709
aF44.42403828972449
aF44.45217193903657
aF44.47510120998432
aF44.49373713169828
aF44.509559756223034
aF44.524907702012044
aF44.53692069791883
aF44.54573598441987
aF44.557563958213585
aF44.56903709279349
aF44.588026837716555
aF44.62088846917936
aF44.65267558879892
aF44.683509094829894
aF44.705946258392686
aF44.73072724761053
aF44.756904965263864
aF44.78229735138759
aF44.81038372175319
aF44.8422367914927
aF44.857992396044885
aF44.8732753324605
aF44.89053650747526
aF44.90611017527409
aF44.920585028091196
aF44.9346256353238
aF44.96400457379351
aF44.982213881775685
aF45.001867358621226
aF45.020931231161406
aF45.054479978314774
aF45.09129566014567
aF45.14289830779931
aF45.192952876023334
aF45.23433325000321
aF45.26888487571553
aF45.281531177176035
aF45.29379808959273
aF45.29556515826611
aF45.30879663350137
aF45.313934029407285
aF45.318917303436024
aF45.33783618465011
aF45.35766742321567
aF45.37131735659826
aF45.384557791979375
aF45.404916013342195
aF45.42538779910172
aF45.45826708392503
aF45.49015999020364
aF45.52863465074353
aF45.5605982501432
aF45.60452226894877
aF45.64712856719017
aF45.66785335405814
aF45.68736544007312
aF45.70911528235377
aF45.730212629366
aF45.74849033613418
aF45.7737122259579
aF45.7955009379342
aF45.81663598855121
aF45.84124887090006
aF45.864407598297085
aF45.90124844440821
aF45.936984065136
aF45.971013307139586
aF46.00465598198544
aF46.0409619979915
aF46.07617883351739
aF46.11109039171648
aF46.152472238136426
aF46.2021142080283
aF46.250266918823414
aF46.299647257692484
aF46.331273061413974
aF46.3561223908866
aF46.38022624047504
aF46.392128252469824
aF46.39479299880637
aF46.40469167220475
aF46.41429338540117
aF46.418260999338244
aF46.42065055769594
aF46.41859259148386
aF46.41659636425814
aF46.408905853254474
aF46.40710241479523
aF46.41138669587498
aF46.41554244852234
aF46.41976492103872
aF46.42288609883649
aF46.41831936263693
aF46.41388962852335
aF46.40169981257772
aF46.39036505238318
aF46.384100057190665
aF46.37802301185393
aF46.37034863629502
aF46.36321356217909
aF46.35801922099874
aF46.3529807100538
aF46.3459838388646
aF46.341891932732565
aF46.32559779833815
aF46.30979248797557
aF46.28043900528159
aF46.23196367802913
aF46.17647567255543
aF46.12265230724594
aF46.08242777923906
aF46.0469685698186
aF46.02323940951432
aF46.00022212401916
aF45.98037377448426
aF45.94657073324449
aF45.911688961399044
aF45.87785364270896
aF45.84076291143236
aF45.816099234440436
aF45.79262515775841
aF45.76985530337684
aF45.74912768456865
aF45.725906169769246
aF45.698108479976995
aF45.67114472087851
aF45.65255519037195
aF45.63376439804939
aF45.61325071331814
aF45.59335243912883
aF45.5581757581272
aF45.51421009606594
aF45.453372940861605
aF45.3943609003134
aF45.312323853231305
aF45.23477794683438
aF45.157680281219
aF45.082895545572086
aF45.00811211193558
aF44.95500460336731
aF44.90115023825521
aF44.848911504096485
aF44.798566478018806
aF44.74366098931317
aF44.693136947781696
aF44.644128627496166
aF44.594455543530024
aF44.536615616336924
aF44.493882070158236
aF44.45243053036491
aF44.40533902186764
aF44.3598188761257
aF44.32238923215335
aF44.286082477500166
aF44.24733166290802
aF44.22169270552351
aF44.20109429334128
aF44.18111383352451
aF44.16783609321917
aF44.155045558666004
aF44.1150269357753
aF44.07620887157131
aF44.03355181082717
aF43.98071916550559
aF43.929471499543666
aF43.879761263560596
aF43.832603468021205
aF43.785339351788075
aF43.727598914485455
aF43.67159069030191
aF43.61046800440907
aF43.56049445904809
aF43.517246441330634
aF43.475295864144705
aF43.44743514739413
aF43.43668917015705
aF43.4285756752495
aF43.420705585189175
aF43.4125286522241
aF43.40896735320684
aF43.39722812253099
aF43.38584106877541
aF43.38611885801006
aF43.39053298302641
aF43.399999312004574
aF43.40918165111339
aF43.424149625103674
aF43.43524024200125
aF43.4645916964501
aF43.493062607265486
aF43.520679390756406
aF43.53719674057017
aF43.54494402552643
aF43.552458891934016
aF43.54877927064479
aF43.53416674044917
aF43.512461650375485
aF43.49140771300401
aF43.47917839219677
aF43.458430303383516
aF43.44308901973467
aF43.42820797459529
aF43.42610556927877
aF43.4158389677676
aF43.400258168580294
aF43.38514479336861
aF43.374029870433866
aF43.360035607352174
aF43.340148100142365
aF43.32085721814885
aF43.307831222874924
aF43.292223549141326
aF43.27032702437606
aF43.24908739535375
aF43.23281271450869
aF43.19605213783429
aF43.13585194333531
aF43.0774577546713
aF43.01175989619013
aF42.94556206134712
aF42.90110076256392
aF42.85797330274422
aF42.81971339801661
aF42.793914229028864
aF42.75377182541631
aF42.71483369391213
aF42.67236551848468
aF42.650411413399254
aF42.62903092583609
aF42.608291852899825
aF42.60744589124637
aF42.60651500201245
aF42.60143121943105
aF42.596499950327086
aF42.57575522391708
aF42.54850329944951
aF42.51962101976481
aF42.49160520847066
aF42.47001917078307
aF42.46915253740404
aF42.4711105165215
a.