(lp0
F42.62391173464139
aF42.61267648164832
aF42.61379141526067
aF42.53279802148565
aF42.459903967088124
aF42.39895147180005
aF42.33050673606643
aF42.21129097593317
aF42.10399679181323
aF42.028681554314296
aF41.927435868682544
aF41.85242410067176
aF41.78491350946206
aF41.75315173867146
aF41.72456614495992
aF41.69596013138264
aF41.67021471916309
aF41.67178160618198
aF41.665697750016264
aF41.65011368602918
aF41.6360880284408
aF41.62346493661126
aF41.59612435900168
aF41.6051002820367
aF41.61317861276822
aF41.612007831880355
aF41.599502603283845
aF41.57272960710407
aF41.54863391054228
aF41.45608977628467
aF41.36316455210512
aF41.291599276049055
aF41.2271905275986
aF41.19264306769737
aF41.18295842550785
aF41.16113382784042
aF41.14149168993974
aF41.100693114571826
aF41.042135083161114
aF40.995133277095086
aF40.952831651635655
aF40.9321716237619
aF40.93926007237565
aF40.920368214726594
aF40.90336554284244
aF40.86013021293009
aF40.83804888046803
aF40.79188760199956
aF40.75034245137794
aF40.760109972391106
aF40.78815625214175
aF40.80115612882432
aF40.812856017838634
aF40.790471917259794
aF40.75587893633671
aF40.73441356475737
aF40.71509473033596
aF40.72133488083095
aF40.80143129770179
aF40.85850935141863
aF40.90987959976379
aF40.95298333099699
aF40.963071013357656
aF40.933015785292284
aF40.90596608003345
aF40.891966707412976
aF40.87788356796977
aF40.906825795401616
aF40.932873800090285
aF40.986975794500644
aF41.05783383787142
aF41.149139812441
aF41.23131518955362
aF41.315450594707436
aF41.39609821110895
aF41.464217194169386
aF41.52552427892378
aF41.60312542020003
aF41.64406870675193
aF41.68850726954332
aF41.72850197605557
aF41.76680581972837
aF41.80216388088904
aF41.835870367758076
aF41.86620620594021
aF41.907708853084195
aF41.934857156802074
aF41.8909477031391
aF41.85142919484242
aF41.86102029040981
aF41.9097030374359
aF42.020808421614284
aF42.12080326737483
aF42.28826717661028
aF42.434148457017166
aF42.524864991905886
aF42.60650987330573
aF42.62951027111998
aF42.60839394388654
aF42.62191802321754
aF42.63408969461544
aF42.64585247677503
aF42.65928865087142
aF42.72006758625162
aF42.77476862809381
aF42.80060994586105
aF42.79186240878936
aF42.79505013647513
aF42.79791909139232
aF42.79501236029702
aF42.83029567539571
aF42.88550705006489
aF42.93519728726715
aF42.97777285409257
aF42.98440543949459
aF42.97997459361398
aF42.97598683232144
aF42.997225911629194
aF43.032469427870545
aF43.1221858859561
aF43.202930698233104
aF43.25670365594999
aF43.30124593334182
aF43.360075648481924
aF43.41302239210802
aF43.45791745883783
aF43.499689425543444
aF43.5372841955785
aF43.57111948861005
aF43.56770147466297
aF43.55497723663194
aF43.529256386369674
aF43.50610762113363
aF43.516741977604525
aF43.561414418762716
aF43.61451010708397
aF43.662296226573105
aF43.70636491595455
aF43.76131763301256
aF43.79832390896587
aF43.83162955732384
aF43.83801134191975
aF43.86818006295022
aF43.906963401740974
aF43.94186840665265
aF43.97463701757175
aF44.011063930875814
aF44.01893303572494
aF44.02601523008916
aF44.043765145137804
aF44.10739938678694
aF44.22171002944674
aF44.324589607840565
aF44.46516242355952
aF44.54085564317774
aF44.62338140066794
aF44.697654582409115
aF44.711210810133174
aF44.722459707713774
aF44.78222040867803
aF44.83600503954586
aF44.844882787051574
aF44.8883124642755
aF44.953216645785794
aF45.01163040914506
aF45.02809316848159
aF45.11979564008482
aF45.2541956100186
aF45.375155582958996
aF45.47275565159194
aF45.6212462354826
aF45.71027129339752
aF45.79039384552094
aF45.797357175581816
aF45.841886074391034
aF45.84511258239617
aF45.84801643960079
aF45.8491035837125
aF45.910584319008734
aF45.927323021704154
aF45.94238785413003
aF45.9950708278967
aF46.06896337091477
aF46.12242622104334
aF46.17054278615905
aF46.23996131166246
aF46.27395222016462
aF46.320049088685224
aF46.36153627035377
aF46.39807749195098
aF46.429762202010735
aF46.53601649102771
aF46.631645351142986
aF46.72887907684285
aF46.818438367848806
aF46.88891715400316
aF46.952348061542075
aF46.961228340126844
aF46.98161340681185
aF46.972032670741996
aF46.96341000827912
aF46.93871197827796
aF46.90971639005917
aF46.82456859497629
aF46.747935579401705
aF46.690031817278495
aF46.65412437942159
aF46.64126631590981
aF46.62969405874921
aF46.64422440233981
aF46.655454176804064
aF46.68924589655592
aF46.71965844433259
aF46.75013129567198
aF46.76714098414392
aF46.78895947538917
aF46.80859611750989
aF46.82837174790304
aF46.80211436428593
aF46.791001705826964
aF46.7810003132139
aF46.77933774889797
aF46.73574683886642
aF46.710964420853784
aF46.68866024464241
aF46.65853963077951
aF46.61688006544534
aF46.571941985289776
aF46.53149771314976
aF46.4855902980503
aF46.407523518983965
aF46.338161264405535
aF46.27573523528495
aF46.22111047066055
aF46.14384030235816
aF46.10084636944231
aF46.06215182981804
aF45.999731780724865
aF45.940331985015554
aF45.88440970225788
aF45.834079647775965
aF45.732531550407636
aF45.60233032497773
aF45.46314099746708
aF45.33787060270749
aF45.23025443492737
aF45.113260125183295
aF45.016670786844266
aF44.92974038233914
aF44.84900711862601
aF44.70094893618502
aF44.60992552974776
aF44.52800446395423
aF44.47708238970007
aF44.40645150352425
aF44.34888761721286
aF44.29708011953261
aF44.219445125209134
aF44.07552203446211
aF43.89241751703985
aF43.72762345135982
aF43.585746430242914
aF43.4062786394098
aF43.23013070295151
aF43.07159756013906
aF42.96900844886888
aF42.83562803070623
aF42.712121197671124
aF42.600965047939525
aF42.46742956406541
aF42.3412761058375
aF42.214809289095626
aF42.100989154027936
aF41.96632158082684
aF41.83202190126135
aF41.71850986269313
aF41.616349027981734
aF41.49096193555383
aF41.40395887066223
aF41.33537547712047
aF41.27365042293289
aF41.18011101737431
aF41.15895346249147
aF41.13776265071235
aF41.11869092011114
aF41.12355656364136
aF41.111308982739224
aF41.06047631593989
aF41.01472691582048
aF40.93086256226897
aF40.792336322260695
aF40.65457297259179
aF40.53058595788977
aF40.42481616166785
aF40.34584209435773
aF40.310734016388665
aF40.27913674621651
aF40.26647870879049
aF40.23150904050329
aF40.218782936904674
aF40.20732944366592
aF40.18091191799907
aF40.1056333624241
aF40.029794215163605
aF39.96153898262916
aF39.849777054361354
aF39.78460473536701
aF39.7577265324412
aF39.73353614980796
aF39.699830696366305
aF39.701576024397845
aF39.62982617485058
aF39.56525131025804
aF39.51468944995889
aF39.48037995839271
aF39.47664752712608
aF39.47328833898612
aF39.52738411712024
aF39.54440228297771
aF39.48971321110405
aF39.440493046417764
aF39.402144484410485
aF39.35608286675706
aF39.33157750307108
aF39.30952267575369
aF39.368845757484586
aF39.37851142075026
aF39.37794992459403
aF39.37744457805342
aF39.36326455965216
aF39.36215631654535
aF39.3495051242949
aF39.338119051269494
aF39.331104666964215
aF39.313830094678224
aF39.280369771659075
aF39.25025548094184
aF39.251284727421975
aF39.30277615848942
aF39.342458834229916
aF39.378173242396365
aF39.396609003661055
aF39.42322070605122
aF39.393754612163264
aF39.36723512766411
aF39.35432385431925
aF39.32612665715105
aF39.28693166385115
aF39.25165616988124
aF39.151037828746084
aF39.097851382840005
aF39.07561271734897
aF39.05559791840703
aF39.03332249175741
aF39.03861171022774
aF38.9669193217777
aF38.90239617217267
aF38.85911136094116
aF38.808739919087444
aF38.779071539447244
aF38.75236999777106
aF38.78098054045327
aF38.766104727489136
aF38.76885530247371
aF38.77133081995983
aF38.76899044915338
aF38.77782251305142
aF38.7945720602668
aF38.80964665276065
aF38.78277028201434
aF38.744348050974025
aF38.73516639214863
aF38.72690289920577
aF38.71840368326821
aF38.75272956404356
aF38.83293608187413
aF38.905121947921636
aF38.91985884364654
aF38.909279583537135
aF38.8343330018659
aF38.76688107836179
aF38.706391228035955
aF38.67690055155916
aF38.68576323470212
aF38.69373964953079
aF38.77448976169344
aF38.83849310500213
aF38.88463943351429
aF38.92617112917523
aF38.93732776263321
aF38.89559546856661
aF38.85664337175923
aF38.82158648463259
aF38.76654871850985
aF38.719887331987046
aF38.71229500318483
aF38.70546190726283
aF38.724202635031375
aF38.80238047077813
aF38.896267413379654
aF38.98076566172102
aF39.048544031258714
aF39.131866735612526
aF39.21125083010168
aF39.28269651514192
aF39.33591862066153
aF39.407928000430836
aF39.45404845438788
aF39.49555686294922
aF39.538355472338196
aF39.60211945181573
aF39.68463009877813
aF39.75888968104429
aF39.83675466977766
aF39.92654906745844
aF40.042199035635164
aF40.14628400699421
aF40.252022174246825
aF40.36050665547943
aF40.460702200548525
aF40.550878191110705
aF40.575499415412686
aF40.580136060339505
aF40.55247058501182
aF40.5275716572169
aF40.50031851176243
aF40.511302916074925
aF40.55627494243005
aF40.596749766149664
aF40.7048383007655
aF40.83903630945326
aF41.006191255314135
aF41.15663070658892
aF41.305773532560906
aF41.40230595209876
aF41.507897062180454
aF41.60292906125398
aF41.66620602911774
aF41.69432802599867
aF41.732645350582274
aF41.76713094270752
aF41.7863960311918
aF41.831083516899476
aF41.908043088486984
aF41.97730670291574
aF42.07182894439367
aF42.1301861990646
aF42.17025799392385
aF42.20632260929717
aF42.22446026547267
aF42.26842799956245
aF42.30780911589403
aF42.34325212059246
aF42.413520544079724
aF42.4770465480674
aF42.51021921508749
aF42.54007461540557
aF42.582188962852314
aF42.58803342539807
aF42.633150443268065
aF42.67375575935106
aF42.71879894397322
aF42.792646735602
aF42.87939151853851
aF42.957461823181376
aF43.013540419763466
aF43.07857941822608
aF43.131793334778
aF43.179685859674734
aF43.26284752737684
aF43.3555091877951
aF43.40448096899567
aF43.44855557207619
aF43.509293937655826
aF43.51395569968141
aF43.521571791319104
aF43.52842627379303
aF43.58484929220513
aF43.617405546551595
aF43.690189054533754
aF43.755694211717696
aF43.83269520557377
aF43.934320580837536
aF44.057219025599814
aF44.16782762588586
aF44.31199226607858
aF44.45454495042619
aF44.5484982520605
aF44.633056223531376
aF44.71830886992876
aF44.770370716937215
aF44.80697318496432
aF44.839915406188716
aF44.87693519679112
aF44.90078313737327
aF44.91509477218544
aF44.9279752435164
aF44.95479114484379
aF44.96611136407453
aF44.96168147766273
aF44.95769457989211
aF44.9700181591007
aF44.934040039818456
aF44.91007654192907
aF44.88850939382863
aF44.88884984660858
aF44.908409358372595
aF44.95542944037045
aF44.99774751416852
aF45.048418364644
aF45.07162146147794
aF45.00436238384555
aF44.94382921397641
aF44.901968181562026
aF44.89242612469281
aF44.88105349471276
aF44.870818127730715
aF44.896418774262266
aF44.8792893808792
aF44.795924753546444
aF44.720896588946964
aF44.66370660176941
aF44.58574883518047
aF44.51877248696964
aF44.458493773579896
aF44.45710608984621
aF44.4618796210458
aF44.5018746024182
aF44.53787008565335
aF44.60586251198005
aF44.62471373745497
aF44.66313447363127
aF44.69771313618993
aF44.75633262308579
aF44.80463985526388
aF44.86035852975021
aF44.9105053367879
aF44.94110290017194
aF44.95662247019974
aF44.963076018098796
aF44.96888421120794
aF44.96452987997763
aF44.95115325010857
aF44.950038102852076
aF44.94903447032124
aF44.97433388231201
aF45.04524194939517
aF45.108763666772134
aF45.1659332124114
aF45.192481345862575
aF45.22643113450841
aF45.26411980466307
aF45.29803960780226
aF45.34008661671281
aF45.39329322634857
aF45.39070626470359
aF45.38837799922311
aF45.39440498259606
aF45.39593036108008
aF45.39519785188987
aF45.39453859361868
aF45.44647709268824
aF45.45892753407269
aF45.47676775832815
aF45.49282396015806
aF45.5574638444363
aF45.62988439726046
aF45.74803434906109
aF45.854369305681665
aF45.92616224264876
aF45.97215142909194
aF45.943979111956
aF45.91862402653365
aF45.86203166175083
aF45.849489928853245
aF45.81254525233777
aF45.779295043473844
aF45.796320206850346
aF45.81657593318222
aF45.81618486012753
aF45.8158328943783
aF45.84056612201447
aF45.86524039701234
aF45.93085275329898
aF45.98990387395695
aF46.068178354047916
aF46.12076931504973
aF46.21116560457762
aF46.292522265152726
aF46.29706551824972
aF46.29918458854719
aF46.31050214796861
aF46.320687951447894
aF46.322566108466965
aF46.34923149731277
aF46.364308610098284
aF46.37787801160525
aF46.40379675046268
aF46.424737720496516
aF46.49150752864701
aF46.55160035598246
aF46.603569533576426
aF46.65245616041893
aF46.70869619592915
aF46.75931222788835
aF46.807370749114895
aF46.87568220144152
aF46.96883443808393
aF47.0526714510621
aF47.13703212740181
aF47.15871298616919
aF47.15880009193574
aF47.15887848712563
aF47.12068663577651
aF47.05671328523435
aF47.02351683458613
aF46.99364002900274
aF46.948930744432815
aF46.903828964449026
aF46.84865123640012
aF46.79899128115611
aF46.73511675278743
aF46.69648420130334
aF46.68182695958503
aF46.66863544203856
aF46.65740105107489
aF46.644041364063874
aF46.6067033835426
aF46.57309920107346
aF46.5165455239997
aF46.46727841887574
aF46.43870376491811
aF46.41298657635624
aF46.383908968043
aF46.358769354481765
aF46.34189930465035
aF46.32671625980207
aF46.306019800863226
aF46.29637651755659
aF46.24661427775948
aF46.20182826194208
aF46.11477974223219
aF45.969761244362275
aF45.8110214694833
aF45.66815567209222
aF45.579523575584666
aF45.51161663121525
aF45.48605462406129
aF45.46304881762273
aF45.450604983146064
aF45.390905058147304
aF45.33019905283887
aF45.27556364806128
aF45.21215687660403
aF45.19280522344714
aF45.17688770227305
aF45.162561933216374
aF45.15419920753846
aF45.13628700591015
aF45.102589956321886
aF45.07226261169245
aF45.070185720922524
aF45.06578669345892
aF45.0542055148138
aF45.0437824540332
aF44.981483849204004
aF44.892600833225465
aF44.75197124216173
aF44.62540461020437
aF44.42884341560829
aF44.258705104714174
aF44.09932017020828
aF43.95587372915298
aF43.819297798673226
aF43.76115420143855
aF43.70102469125779
aF43.64690813209511
aF43.59929171570299
aF43.536200896249134
aF43.48853343378395
aF43.44563271756528
aF43.39990536200456
aF43.32656062284678
aF43.305120968266834
aF43.28582527914489
aF43.245514109276016
aF43.2097627813954
aF43.20000291096059
aF43.19121902756927
aF43.17153599058854
aF43.1936523665388
aF43.2277950264965
aF43.25852342045843
aF43.30652332741389
aF43.35001948881718
aF43.29712668616637
aF43.249523163780644
aF43.19000153207924
aF43.098247742215456
aF43.015669331338046
aF42.941348761548376
aF42.87799735995162
aF42.81591091664816
aF42.72038563582008
aF42.63441288307481
aF42.53438837748806
aF42.47541785564355
aF42.43976545692583
aF42.40767829807987
aF42.42157099885112
aF42.48833748958184
aF42.556127674614196
aF42.617138841143316
aF42.670239072330986
aF42.73259703359612
aF42.76110329663769
aF42.78675893337511
aF42.84759311103064
aF42.916159435783094
aF42.995151220434636
aF43.066243826621026
aF43.150430855704556
aF43.21477145563641
aF43.33465651576907
aF43.44255306988846
aF43.53965996859592
aF43.59281974352449
aF43.61308172641662
aF43.63131751101953
aF43.61116624481358
aF43.556219113411316
aF43.481663575869476
aF43.41456359208182
aF43.381483601483254
aF43.32209278451043
aF43.284588924234924
aF43.250835449986965
aF43.26156468472605
aF43.24379676814411
aF43.20906499081545
aF43.177806391219654
aF43.16149048831873
aF43.1360968829246
aF43.09219906466799
aF43.052691028237035
aF43.03608766298181
aF43.011236439859125
aF42.96634673490312
aF42.925946000442714
aF42.90401120378363
aF42.814356099274804
aF42.65185838813416
aF42.505610448107575
aF42.34380231716004
aF42.18993862558635
aF42.1172966398851
aF42.05191885275397
aF42.00499128199431
aF42.0004662636374
aF41.9460030481347
aF41.89698615418227
aF41.8372103233971
aF41.8475454926211
aF41.85656379282171
aF41.864680263002256
aF41.93622154981384
aF42.00024101984403
aF42.04392247612287
aF42.083235786773834
aF42.06541311509582
aF42.02560757775272
aF41.98162288430674
aF41.94203666020535
aF41.92504005607326
aF41.97664918961416
aF42.03242612145134
a.