(lp0
F41.76366671428498
aF41.76366671428498
aF41.730772825344474
aF41.686205974996426
aF41.66993684444634
aF41.65529462695126
aF41.647198325268015
aF41.637832895778786
aF41.63372922971911
aF41.6300359302654
aF41.634791747984565
aF41.64098896013451
aF41.626054165978275
aF41.612612851237664
aF41.584894743488334
aF41.5651707714134
aF41.53768729271023
aF41.51295216187738
aF41.513332206437184
aF41.498976300068726
aF41.46154839354463
aF41.42786327767295
aF41.366524052247996
aF41.283208368073986
aF41.2178846462841
aF41.1590932966732
aF41.128977015360675
aF41.10960119439625
aF41.09899938032725
aF41.08945774766515
aF41.07613982226054
aF41.02066331490307
aF40.98235159737508
aF40.94787105159989
aF40.89781853967189
aF40.83666501199719
aF40.77513391903369
aF40.71975593536654
aF40.64725662590446
aF40.58856370654562
aF40.54071087790676
aF40.49764333213179
aF40.452765845303134
aF40.391963983789566
aF40.323530485384936
aF40.26194033682077
aF40.244702950252446
aF40.26842380220877
aF40.27792328858722
aF40.28647282632782
aF40.32247056033894
aF40.33841465128662
aF40.32556728646294
aF40.31400465812163
aF40.31898597921808
aF40.32269307081178
aF40.289094197059036
aF40.25885521068157
aF40.25668023860066
aF40.252870217812685
aF40.26466503631609
aF40.27528037296915
aF40.33079564621662
aF40.4020321216009
aF40.48400390089329
aF40.55777850225645
aF40.627409900195616
aF40.73736604358839
aF40.80240762406638
aF40.860945046496575
aF40.9229731758488
aF40.95695791518651
aF40.97523709187835
aF40.99168835090101
aF41.06937311116606
aF41.11607028605799
aF41.16024227799433
aF41.199997070737034
aF41.24391548381509
aF41.24380313974045
aF41.257583501633995
aF41.26998582733818
aF41.3049206238315
aF41.32400482346558
aF41.3582062286363
aF41.388987493289946
aF41.488841669903614
aF41.60955529802595
aF41.780363243378424
aF41.93409039419565
aF42.12018851972199
aF42.283001137718095
aF42.431099795874815
aF42.56438858821586
aF42.64774615409124
aF42.70863476004916
aF42.74469334471806
aF42.77714607092007
aF42.801544748126545
aF42.83425965287505
aF42.825786572470456
aF42.81816080010633
aF42.84737311484242
aF42.904037203054045
aF42.96973692585364
aF43.028866676373276
aF43.12167145280756
aF43.14984835215982
aF43.14950208315437
aF43.149190441049456
aF43.136388795543496
aF43.09507881127017
aF43.115937847243686
aF43.134710979619854
aF43.202288016941466
aF43.2438945984497
aF43.31065710320034
aF43.37074335747592
aF43.34484777086774
aF43.27305830180645
aF43.18359655910303
aF43.10308099066995
aF43.01733139294366
aF42.9764308981237
aF42.94117898177547
aF42.909452257062064
aF42.92953542610258
aF42.97118246567187
aF43.00841978638268
aF43.04193337502241
aF43.08277188525299
aF43.121154300035876
aF43.14299562481697
aF43.162652817119955
aF43.1831926287882
aF43.229270674494785
aF43.281343886063155
aF43.32820977647469
aF43.356221188504605
aF43.41495941355304
aF43.41598015862221
aF43.41689882918447
aF43.4117152434175
aF43.434198512284866
aF43.446026763651254
aF43.456672189881
aF43.510118484662605
aF43.57633766158325
aF43.66605225941702
aF43.74679539746741
aF43.83919979102521
aF43.92877802688789
aF43.999553759237344
aF44.06325191835185
aF44.10527476741553
aF44.16619697782104
aF44.2073352866284
aF44.24435976455503
aF44.29297951534712
aF44.36332578260384
aF44.430128369798666
aF44.49025069827401
aF44.62925299510295
aF44.755590757263754
aF44.87064737460147
aF44.97419833020541
aF45.03085382053881
aF45.06108154639784
aF45.110506921673895
aF45.15498975942235
aF45.205384748008036
aF45.285767015807295
aF45.330096095582256
aF45.369992267379715
aF45.38156714327957
aF45.420006803442156
aF45.442208234964674
aF45.46218952333494
aF45.506633862196416
aF45.59098918548594
aF45.62598650176349
aF45.65748408641329
aF45.72337444139751
aF45.795866742186526
aF45.867607688423405
aF45.9321745400366
aF46.06678981824228
aF46.230035638465516
aF46.375382729588665
aF46.5061951115995
aF46.58213629258797
aF46.61461064175382
aF46.58779534680935
aF46.563661581359334
aF46.53912078179898
aF46.5380766028292
aF46.538308896245105
aF46.538517960319425
aF46.55279384202135
aF46.59387431396712
aF46.62836275471754
aF46.65940235139292
aF46.67211600878445
aF46.65870068881676
aF46.65761359402
aF46.656635208702916
aF46.67429743339662
aF46.693282668648
aF46.76079755999192
aF46.82156096220145
aF46.85522556271586
aF46.86946535291258
aF46.887873615033655
aF46.90444105094262
aF46.90041192443941
aF46.87104239513185
aF46.855291596405394
aF46.84111587755159
aF46.79889174433742
aF46.74425963623929
aF46.70949845121872
aF46.67821338470021
aF46.6159582692233
aF46.614478287159336
aF46.61319240573665
aF46.61203511245623
aF46.55854290054011
aF46.509192483239005
aF46.390930882649215
aF46.2844954421184
aF46.2104651117032
aF46.18437326825676
aF46.166574908601845
aF46.15055638491242
aF46.14584810148836
aF46.109299233306075
aF46.02450570258796
aF45.948191524941656
aF45.83280984912041
aF45.76093097701516
aF45.67639843339031
aF45.60031914412795
aF45.531294547513205
aF45.46383060284613
aF45.38113731305269
aF45.30671335223859
aF45.214010742259426
aF45.17693866387765
aF45.174583239954636
aF45.172463358423926
aF45.17117721775321
aF45.18907544180501
aF45.13201844998084
aF45.080667157339086
aF45.022198551529684
aF44.93568552505941
aF44.84309994491849
aF44.75977292279167
aF44.64005613870464
aF44.473831395255125
aF44.263871916085485
aF44.07490838483281
aF43.85337575131886
aF43.69171455331056
aF43.53784985255339
aF43.39937162187194
aF43.268963734882874
aF43.15550745146091
aF42.95871100378034
aF42.78159420086782
aF42.58612080781184
aF42.39228633376236
aF42.16764079722273
aF41.965459814337066
aF41.789625895247696
aF41.65163118318976
aF41.56170081560494
aF41.4807634847786
aF41.371743591808794
aF41.26534152142577
aF41.170611170875134
aF41.085353855379566
aF40.941838247338
aF40.86805740448534
aF40.851737804766806
aF40.83705016502012
aF40.81119555265375
aF40.79723093266907
aF40.741092939850134
aF40.69056874631309
aF40.61712470014752
aF40.5271676743405
aF40.44620635111418
aF40.373341160210494
aF40.29955555491503
aF40.247726840546434
aF40.22137700230316
aF40.1976621478842
aF40.171305420731315
aF40.13595175828625
aF40.05992060103441
aF39.99149255950777
aF39.88933780728796
aF39.775442773845285
aF39.667303321646656
aF39.56997781466789
aF39.48238485838699
aF39.409951480442004
aF39.321858451103665
aF39.24257472469916
aF39.172676499247885
aF39.13657424443559
aF39.11304605547381
aF39.0918706854082
aF39.109426114234005
aF39.13877579150093
aF39.17172218025133
aF39.201373930126685
aF39.21880055569081
aF39.23448451869852
aF39.24625427968708
aF39.256847064576775
aF39.243314461761194
aF39.2059877946333
aF39.1723937942182
aF39.142159193844606
aF39.09466767855045
aF39.07246948047467
aF39.07299676629623
aF39.07347132353563
aF39.00052338629725
aF38.95567090214573
aF38.887962858815264
aF38.827025619817846
aF38.781777092322585
aF38.7552257453905
aF38.73172203326714
aF38.71056869235612
aF38.69996065525737
aF38.678407164839946
aF38.68755576257622
aF38.695789500538865
aF38.71973889740648
aF38.71997386887719
aF38.71927890131491
aF38.71865343050886
aF38.6927601966709
aF38.65031335819694
aF38.564105817864906
aF38.486519031566075
aF38.45357034858437
aF38.4359691951649
aF38.406702490802104
aF38.38036245687558
aF38.39188197644767
aF38.37928786044065
aF38.38032316170866
aF38.38125493284987
aF38.383120296996225
aF38.395752214838474
aF38.393762560906346
aF38.391971872367435
aF38.37807035512675
aF38.414372970351586
aF38.48803128298071
aF38.55432376434691
aF38.59755276675432
aF38.64942940755432
aF38.64489814436807
aF38.640820007500444
aF38.6149614536742
aF38.62757495904429
aF38.62921828991754
aF38.63069728770346
aF38.61958557615063
aF38.622754310666444
aF38.58621649613166
aF38.55333246305036
aF38.535927194457955
aF38.54596667911671
aF38.53102341124284
aF38.51757447015636
aF38.51587758222207
aF38.52923093291609
aF38.54124894854071
aF38.55206516260287
aF38.502779423104016
aF38.49117031490379
aF38.45640686074347
aF38.42511975199918
aF38.374745703957736
aF38.390911229910806
aF38.3439580340782
aF38.301700157828854
aF38.259493578008296
aF38.26066510254799
aF38.2744394016766
aF38.28683627089235
aF38.33502593092187
aF38.41508773976879
aF38.514369071869154
aF38.60372227075948
aF38.61939671432215
aF38.65746205089955
aF38.71633080005192
aF38.76931267428906
aF38.777334287748
aF38.8767140330253
aF38.95380840789697
aF39.02319334528147
aF39.035376543403544
aF39.097694132576244
aF39.12748116395408
aF39.15428949219413
aF39.21753477352093
aF39.32757616608061
aF39.42432247123126
aF39.51139414586684
aF39.60077278380912
aF39.745493782625815
aF39.90025678091275
aF40.03954347937099
aF40.16713726033258
aF40.28292559021986
aF40.30013291822513
aF40.315619513429866
aF40.33043829324458
aF40.38251791891854
aF40.48764316058126
aF40.5822558780777
aF40.747536289991906
aF40.91082650515006
aF41.06981149541113
aF41.21289798664609
aF41.30337758632748
aF41.34920379226609
aF41.39044737761084
aF41.427566604421116
aF41.450823939085346
aF41.529733225198285
aF41.627610862982614
aF41.71570073698851
aF41.805829004785245
aF41.91216126576752
aF41.98750639175413
aF42.05531700514207
aF42.1522165134493
aF42.24461905888653
aF42.30818070658218
aF42.365386189508264
aF42.38381235793194
aF42.393028961193636
aF42.41548799485094
aF42.435701125142515
aF42.464952894703096
aF42.58183166702545
aF42.68629260387051
aF42.78030744703108
aF42.84571756362964
aF42.94035722894767
aF42.9867153308904
aF43.028437622638855
aF43.04588573419554
aF43.11577062239468
aF43.18355271659509
aF43.24455660137546
aF43.31027301529649
aF43.407542728774416
aF43.45871497562468
aF43.504769997789914
aF43.51352770677504
aF43.571440581888936
aF43.64193107884416
aF43.70537252610386
aF43.804038157013366
aF43.89252324321798
aF43.912062849693385
aF43.92964849552125
aF43.92932733781526
aF43.94610512457814
aF44.00988267520925
aF44.06728247077724
aF44.17483981657715
aF44.29387217113493
aF44.3992508313849
aF44.49409162560987
aF44.59583997163599
aF44.68481424322292
aF44.779872405086714
aF44.865424750764134
aF44.91961050920104
aF44.97188435546454
aF44.96727429965136
aF44.9631252494195
aF44.922567704433945
aF44.90681398769707
aF44.856299041325286
aF44.81083558959068
aF44.81500428585303
aF44.86492222698446
aF44.87161304614579
aF44.87763478339098
aF44.8986030679066
aF44.899918462386985
aF44.83034736862268
aF44.76773338423481
aF44.71171051015206
aF44.64921717575262
aF44.62708829637329
aF44.607172304931886
aF44.60773297301005
aF44.634342568287906
aF44.650305592344125
aF44.66467231399472
aF44.6522145890505
aF44.624742903045565
aF44.59967769521632
aF44.57711900817
aF44.54434945116877
aF44.49447881680706
aF44.46238838896683
aF44.43350700391062
aF44.42034311400298
aF44.38899888599312
aF44.383806939205186
aF44.37913418709604
aF44.41477137492895
aF44.40625929473334
aF44.48097153737887
aF44.548212555759854
aF44.556899480241064
aF44.54176910685814
aF44.549939007268485
aF44.55729191763779
aF44.48753821666958
aF44.46516640133868
aF44.460376951126264
aF44.45606644593509
aF44.44333963097653
aF44.42797717085999
aF44.40974742791706
aF44.393340659268425
aF44.384014435594445
aF44.393212085401274
aF44.429529143145075
aF44.4622144951145
aF44.541127118634066
aF44.60466006733913
aF44.63451581989521
aF44.66138599719568
aF44.74247569131072
aF44.790282368799765
aF44.84071795012926
aF44.88610997332581
aF44.95649270576793
aF44.99806175676839
aF45.04922318725441
aF45.095268474691835
aF45.1739807749309
aF45.275624467653785
aF45.36855311905982
aF45.45218890532525
aF45.52619888881759
aF45.560240729376154
aF45.55741457967063
aF45.55487104493566
aF45.5331020182867
aF45.52465659975329
aF45.55381103269065
aF45.58005002233428
aF45.58273226700372
aF45.59191380925358
aF45.6187131648165
aF45.64283258482312
aF45.62601519215896
aF45.64800301907389
aF45.68618849026463
aF45.72055541433629
aF45.770860553520166
aF45.811226108634685
aF45.85979495279822
aF45.903506912545396
aF45.964120345551144
aF45.97926208631474
aF46.03792746540532
aF46.09072630658684
aF46.172710139262136
aF46.24905804827268
aF46.301721150357025
aF46.34911794223294
aF46.37997321508648
aF46.389513358966084
aF46.37086633275109
aF46.354084009157596
aF46.37716893319077
aF46.39590468856589
aF46.408114211547144
aF46.41910278223027
aF46.42296379820251
aF46.437120067076464
aF46.49335429717901
aF46.543965104271294
aF46.57592626715374
aF46.64005947155338
aF46.726602937525165
aF46.804492056899775
aF46.83560220071462
aF46.89786765465658
aF46.99069839174967
aF47.07424605513344
aF47.09475306950883
aF47.1336895550188
aF47.16630934578334
aF47.195667157471426
aF47.17425396032869
aF47.1439121395488
aF47.11776774110236
aF47.094237782500564
aF47.05413291202496
aF47.014660406770005
aF46.97947079834469
aF46.94780015076191
aF46.89668706798448
aF46.84379601719348
aF46.788629815093856
aF46.73898023320419
aF46.715024455828875
aF46.68436217781667
aF46.65308796759685
aF46.62494117839902
aF46.61855181919992
aF46.63124018952918
aF46.643502601797756
aF46.65453877283947
aF46.66071610784035
aF46.63469338806355
aF46.58039989241235
aF46.53153574632627
aF46.493084601496136
aF46.46813420490518
aF46.43082449024488
aF46.397245747050604
aF46.311679589300184
aF46.20067857194296
aF46.03758123087738
aF45.890793623918356
aF45.78103114975359
aF45.71964151734426
aF45.633342875694076
aF45.55567409820892
aF45.508000156031756
aF45.442095036249725
aF45.38829170117942
aF45.33986869961614
aF45.28113414665088
aF45.17793866135359
aF45.02650051318939
aF44.890206179841606
aF44.729743894181055
aF44.61884402175562
aF44.54668873191575
aF44.48174897105987
aF44.47347714246929
aF44.473214696441595
aF44.470731459406416
aF44.46849654607475
aF44.44327674332903
aF44.42010266518499
aF44.34360303380057
aF44.274753365554595
aF44.17690491192017
aF44.07211309455566
aF43.93648502083878
aF43.814419754493585
aF43.73986242703444
aF43.67938404889508
aF43.64716734471649
aF43.61817231095577
aF43.57192803392724
aF43.534735501801876
aF43.46338777444615
aF43.39917481982599
aF43.264525872344564
aF43.12920568820984
aF42.95696790200454
aF42.80195389441978
aF42.636381164336285
aF42.52329953355913
aF42.451420153070636
aF42.38672871063099
aF42.32775706618087
aF42.30785776846903
aF42.27681534548094
aF42.248877164791665
aF42.18422734363809
aF42.14135673991559
aF42.12046601734963
aF42.101664367040264
aF42.11040721552366
aF42.116841995900735
aF42.125205918351895
aF42.13273344855794
aF42.13929069447754
aF42.16852018101729
aF42.23158669446716
aF42.28834655657204
aF42.285186628611804
aF42.29651653827875
aF42.30224068868892
aF42.307392424058065
aF42.27422284330805
aF42.301207023483705
aF42.297476538280236
aF42.29411910159712
aF42.29611586183755
aF42.323486562833224
aF42.3575096074492
aF42.388130347603585
aF42.41957278378515
aF42.42897457693636
aF42.45108150976472
aF42.470977749310244
aF42.468234565885155
aF42.50934655434002
aF42.57390112558994
aF42.63200023971487
aF42.69209075241255
aF42.79116614360517
aF42.903106836698484
aF43.003853460482475
aF43.14222756378703
aF43.25298356574364
aF43.30472547004334
aF43.35129318391307
aF43.331665679703185
aF43.255037481874076
aF43.166209480863785
aF43.08626427995452
aF43.055890252591325
aF43.067504561541305
aF43.09178173090156
aF43.113631183325786
aF43.15329838478529
aF43.16395600357808
aF43.134450506525056
aF43.10789555917734
aF43.04799515657212
aF42.988097368143485
aF42.94530588860318
aF42.906793557016904
aF42.819481556084554
aF42.76038297109707
aF42.7133787249151
aF42.67107490335133
aF42.59942684945609
aF42.52427266979774
aF42.457395030237734
aF42.39720515463373
aF42.326241666900565
aF42.26410986824055
aF42.26374407850236
aF42.26341486773799
aF42.22955860730035
aF42.20287285957879
aF42.17489027404189
aF42.149705947058685
aF42.07699593733612
aF42.026482710164416
aF42.02869206298243
aF42.03068048051865
aF42.05271211000769
aF42.12059131212427
aF42.18399473812422
aF42.24105782152418
aF42.26895897589965
aF42.30345750054697
aF42.31112563894875
aF42.318026963510356
aF42.383016453861295
aF42.449425561588406
aF42.543416654938824
aF42.6280086389542
aF42.680555566662605
a.