(lp0
F33.89432033795448
aF33.88944783053037
aF33.888733279703686
aF33.8880401654018
aF33.888305009491305
aF33.885522612511465
aF33.884944958198936
aF33.88438463351578
aF33.87971248386641
aF33.87928847952804
aF33.898196279217686
aF33.916536844916635
aF33.95641325931221
aF34.02411449325519
aF34.0919164707664
aF34.157684388952276
aF34.22004953575923
aF34.282312730877514
aF34.32626580162186
aF34.36890028024388
aF34.40218142319714
aF34.41754438483588
aF34.41809418856328
aF34.418627498178864
aF34.41061823007962
aF34.39843291063226
aF34.36456332222914
aF34.33170982147811
aF34.257404332051
aF34.15461082449391
aF34.0361737309361
aF33.902955774942235
aF33.76069862495533
aF33.62270918946803
aF33.47243357448313
aF33.32666622794777
aF33.18527190180847
aF33.04811940545335
aF32.90122118409346
aF32.75483082574678
aF32.62968526748972
aF32.50829407598037
aF32.39054462021631
aF32.27632764812517
aF32.16553718519676
aF32.05807043615621
aF31.945506823727634
aF31.831038416141627
aF31.711826992885012
aF31.596191912326095
aF31.472307192553316
aF31.363793715652488
aF31.277745423520514
aF31.217012339053014
aF31.15810124711954
aF31.10095748794407
aF31.04552804154386
aF30.991761478535658
aF30.939607912417703
aF30.889018953283287
aF30.839947662922903
aF30.79234851127333
aF30.746177334173247
aF30.701391292386162
aF30.657948831852693
aF30.615809645135226
aF30.574934634019282
aF30.53528587323682
aF30.506592651867823
aF30.478760227139897
aF30.45176277515381
aF30.425575246727306
aF30.400173344153593
aF30.375533498657095
aF30.35163284852549
aF30.328449217897834
aF30.31913741795299
aF30.30465575037628
aF30.29060853282687
aF30.276982731803944
aF30.263765704811703
aF30.254581083328347
aF30.25740567028191
aF30.260145519626864
aF30.26280317349147
aF30.265381097740136
aF30.267881684261344
aF30.270307253186914
aF30.26890506945818
aF30.284499325428555
aF30.299625753719816
aF30.31429838916234
aF30.328530845541586
aF30.342336328229457
aF30.35572764643669
aF30.368717225097708
aF30.381317116398897
aF30.39353901096105
aF30.405394248686335
aF30.416893829279864
aF30.444031904522863
aF30.470355837508574
aF30.495350223944797
aF30.519594778787933
aF30.543111996985775
aF30.565923698637683
aF30.588051049240033
aF30.609514579324312
aF30.630334203506063
aF30.65052923896236
aF30.670118423354968
aF30.6891199322158
aF30.721855257124894
aF30.753608522286715
aF30.78440918949368
aF30.814285836684437
aF30.83905141635785
aF30.863074028641062
aF30.886882726986133
aF30.911122795034597
aF30.940436231159467
aF30.976984552654407
aF31.02998372911505
aF31.081392930281872
aF31.131259855413692
aF31.179630772791555
aF31.226550562648082
aF31.272062758808914
aF31.31620958908492
aF31.359032014452648
aF31.400569767059345
aF31.44086138708784
aF31.479944258515477
aF31.517854643800288
aF31.554627717526554
aF31.590297599041033
aF31.624897384110078
aF31.65845917562705
aF31.691014113398513
aF31.72259240303683
aF31.753223343986
aF31.797677286989796
aF31.863354454753917
aF31.93069169524923
aF31.996763768444215
aF32.05834938609467
aF32.10429192068479
aF32.1488561792372
aF32.19208351003304
aF32.24759543045547
aF32.30144199326523
aF32.3536731591907
aF32.4043373901384
aF32.453481694157674
aF32.494275962152216
aF32.533846402106924
aF32.57222972886299
aF32.609461555816374
aF32.64557642796115
aF32.68585002362371
aF32.73801976349158
aF32.7866020649957
aF32.82999043092444
aF32.867915301879265
aF32.914044055137424
aF32.95878894579784
aF33.02513550520745
aF33.085142150817035
aF33.14334859705833
aF33.21201486223556
aF33.28660153092083
aF33.3630361084989
aF33.418585599536556
aF33.472468605843076
aF33.524735121960404
aF33.575433642594206
aF33.62461120760899
aF33.67231344567334
aF33.7222859798447
aF33.77075933799092
aF33.813745807903885
aF33.85544268371947
aF33.90356877481696
aF33.95025108318153
aF33.995532922295155
aF34.04679550695411
aF34.09652021407331
aF34.16001672247357
aF34.225301677867265
aF34.276266262060005
aF34.33681914341489
aF34.39555543832913
aF34.44048302862687
aF34.4752891050461
aF34.50905099917276
aF34.541800036475614
aF34.57356660265938
aF34.59693240295062
aF34.61959722923312
aF34.64158211072715
aF34.65719150880734
aF34.67233262494512
aF34.68701950759877
aF34.701265783772804
aF34.71508467166162
aF34.728488992913775
aF34.741491184528364
aF34.75410331039451
aF34.766337072484674
aF34.77820382171213
aF34.779147863651524
aF34.78006358433273
aF34.7809518333935
aF34.78181343498245
aF34.782649188523735
aF34.783459869458774
aF34.78424622996577
aF34.78500899965755
aF34.785748886258574
aF34.78646657626157
aF34.78716273556447
aF34.787838010088294
aF34.7884930263764
aF34.78912839217586
aF34.78974469700134
aF34.7793103797982
aF34.75939219050759
aF34.74593824987258
aF34.724567977017
aF34.68823855166953
aF34.65299900908248
aF34.61881665277304
aF34.58565976715288
aF34.53011501513895
aF34.47623660568544
aF34.42397454851554
aF34.37328035306073
aF34.32410698346957
aF34.27640881496614
aF34.230141591517814
aF34.18526238477294
aF34.14172955423041
aF34.074026563905
aF34.00835466328935
aF33.944652919692174
aF33.882862228402914
aF33.82292525785233
aF33.764786396418266
aF33.68546696067283
aF33.608527107999755
aF33.533895450906876
aF33.46150274352678
aF33.39128181736809
aF33.323167518994154
aF33.25709664957144
aF33.19300790623141
aF33.130841825191574
aF33.070540726582934
aF33.0134479034785
aF32.9580678650672
aF32.90434922780824
aF32.82966606189931
aF32.738687737734416
aF32.65043876329447
aF32.5544799658143
aF32.43401198825694
aF32.314189771078205
aF32.19796222041483
aF32.086752379016204
aF31.97887883285954
aF31.874241493087574
aF31.772743273508766
aF31.674290000517324
aF31.578790325715623
aF31.486155641157975
aF31.396299997137056
aF31.309140022436765
aF31.21878103387469
aF31.113330520361615
aF31.01104352225393
aF30.89579437025938
aF30.773367548876337
aF30.654613532134785
aF30.546968725872755
aF30.457757132574002
aF30.37897225566506
aF30.287198321287462
aF30.19949886803746
aF30.122489662659802
aF30.058018544195992
aF29.97416960538312
aF29.892836134734637
aF29.813942668205605
aF29.72979838966728
aF29.661590825588906
aF29.59542948843288
aF29.53125299139154
aF29.469001789261437
aF29.408618123195236
aF29.350045967111022
aF29.293230975709335
aF29.255120803579388
aF29.21815393661334
aF29.182296075656275
aF29.14751395052792
aF29.113775289153416
aF29.081048787620148
aF29.049304081132878
aF29.018511715840226
aF28.974505380677535
aF28.933763202063094
aF28.894243288807086
aF28.865068108732295
aF28.836768184059746
aF28.809317257127375
aF28.782689858002975
aF28.756861280852306
aF28.711230594538964
aF28.668608862627707
aF28.62726578267379
aF28.59489098273414
aF28.56348742679268
aF28.533025977529462
aF28.50347837174414
aF28.467664812889492
aF28.432925660800482
aF28.408987897655326
aF28.38496482462163
aF28.36622673823033
aF28.348050794430772
aF28.3304201289452
aF28.313318383424193
aF28.296729690268815
aF28.2806386579081
aF28.265030356518206
aF28.24989030417001
aF28.25092898304443
aF28.25697896812091
aF28.262847453645097
aF28.268539884603555
aF28.274061542633262
aF28.279417550922076
aF28.31264925887981
aF28.338160577172726
aF28.36198948138352
aF28.385103518467993
aF28.40752413443993
aF28.42927213193271
aF28.450367689500705
aF28.47083038034166
aF28.49067919045739
aF28.509932536269645
aF28.52207214025419
aF28.533847556119195
aF28.5216808866769
aF28.508963006796858
aF28.49662666331322
aF28.484660410134087
aF28.48058392944288
aF28.479926370151308
aF28.488072395868556
aF28.495974040814286
aF28.49254051828827
aF28.489210001438032
aF28.485979400093303
aF28.482845716788916
aF28.47980604398366
aF28.476857561362564
aF28.4739975332201
aF28.47122330592191
aF28.468532305442665
aF28.465922034977797
aF28.463390072626876
aF28.460934069146482
aF28.4585517457705
aF28.456240892095796
aF28.462575218989517
aF28.46949898098027
aF28.45317242550816
aF28.448755818087
aF28.428765113620372
aF28.40972972158138
aF28.395805165914453
aF28.394127704487758
aF28.40411677902059
aF28.41380618131744
aF28.42676718193682
aF28.439339352537623
aF28.44705801268835
aF28.454545113034552
aF28.461937406559834
aF28.469107931279353
aF28.482300388717512
aF28.512657316639235
aF28.542103536723303
aF28.572065830271363
aF28.60112925501298
aF28.629320777012353
aF28.65666655335174
aF28.683191956400947
aF28.708921597358678
aF28.72846663182011
aF28.747425315247696
aF28.765815238172458
aF28.783653463409475
aF28.800956541889384
aF28.817740528014895
aF28.83402099455664
aF28.84981304710213
aF28.865131338071258
aF28.879990080311313
aF28.894403060284166
aF28.908383650857832
aF28.921944823714288
aF28.93509916138505
aF28.94785886892569
aF28.96023578524011
aF28.972241394065097
aF28.983886834625334
aF28.995182911968765
aF29.006140106991893
aF29.044392617694335
aF29.081497553075703
aF29.11748934039563
aF29.15240137409596
aF29.190365468314482
aF29.22719063970645
aF29.26291105595666
aF29.30234058722706
aF29.340587232559347
aF29.377686478531665
aF29.413672747124814
aF29.448579427660167
aF29.48243890777946
aF29.515282603495177
aF29.54714098833942
aF29.57804362163834
aF29.60801917593829
aF29.63709546360924
aF29.66529946265006
aF29.69265734171966
aF29.71919448441717
aF29.738429392298297
aF29.75708725294299
aF29.77274894381864
aF29.787940783968022
aF29.802676868912922
aF29.816970871309476
aF29.83083605363413
aF29.844285280489046
aF29.86096727948911
aF29.87714881851917
aF29.89284491137833
aF29.908070121451715
aF29.934103523110565
aF29.95935592271965
aF29.983850750340462
aF30.00761073313265
aF30.05030930152067
aF30.077842478584515
aF30.112897744711905
aF30.162195630039225
aF30.210014578806728
aF30.256398959111205
aF30.301391808006546
aF30.34503487143503
aF30.387368642960656
aF30.428432401340515
aF30.468264246968978
aF30.50690113722859
aF30.54437892078041
aF30.584962188909415
aF30.64314288051982
aF30.699578151381914
aF30.754320364118144
aF30.80742031047229
aF30.856957880421344
aF30.911436329675457
aF30.964280425451946
aF31.015539198355143
aF31.06526020807124
aF31.113489587495856
aF31.160272085537734
aF31.205651108638357
aF31.24966876104596
aF31.292365883881335
aF31.333782093031648
aF31.37395581590745
aF31.41292432709698
aF31.450723782950824
aF31.487389255129052
aF31.522954763141932
aF31.570858015099695
aF31.617324169498723
aF31.662396339265776
aF31.70611634393982
aF31.748524748473642
aF31.789660900871453
aF31.821523271735213
aF31.852429771473062
aF31.882409076218774
aF31.911489001822115
aF31.939696529657358
aF31.96705783165754
aF31.99359829459772
aF32.01934254364969
aF32.04431446523011
aF32.06853722916311
aF32.092033310178124
aF32.11482450876269
aF32.136931971389714
aF32.15837621013793
aF32.1791771217237
aF32.199354005961894
aF32.21892558367294
aF32.23791001405266
aF32.256324911520984
aF32.27418736206526
aF32.291513939093214
aF32.30832071881032
aF32.32462329513592
aF32.34043679417175
aF32.35577588823651
aF32.37065480947932
aF32.38508736308484
aF32.399086940082206
aF32.412666529769645
aF32.42583873176646
aF32.438615767703375
aF32.45100949256218
aF32.46303140567522
aF32.47469266139487
aF32.48600407944293
aF32.49697615494955
aF32.50761906819097
aF32.51794269403515
aF32.527956611104
aF32.53767011066079
aF32.553606277001634
aF32.56906435835226
aF32.58674939825536
aF32.60390388696136
aF32.62054374100619
aF32.63668439942967
aF32.65234083810044
aF32.6675275836111
aF32.68579939155289
aF32.70352304525643
aF32.731975145010146
aF32.73745665233241
aF32.742773714435
aF32.74793126467452
aF32.75293408840685
aF32.75778682742722
aF32.762493984276965
aF32.767059926421226
aF32.77148889030116
aF32.77578498526469
aF32.779952197379316
aF32.783994393130506
aF32.78791532300916
aF32.791718624991454
aF32.80686330768617
aF32.82155364990005
aF32.83580328184752
aF32.84962542483655
aF32.86243429754158
aF32.87485890406546
aF32.89471335386246
aF32.91397217016554
aF32.9399690403328
aF32.965339445525935
aF33.005730674970515
aF33.0309518652679
aF33.05541641985637
aF33.07914703780718
aF33.10216573721947
aF33.12449387564939
aF33.14615216992642
aF33.167160715375125
aF33.187539004460376
aF33.20730594487307
aF33.20972346540573
aF33.21206846032241
aF33.21434310539159
aF33.216549511108695
aF33.21868972465429
aF33.22076573179351
aF33.22277945871856
aF33.22473277383586
aF33.21079746538492
aF33.19728021618751
aF33.16828523891887
aF33.167276844283265
aF33.174871561778204
aF33.182238437748296
aF33.192726586473704
aF33.20290009073735
aF33.21276838987309
aF33.22234064003476
aF33.231625722691575
aF33.240632252868686
aF33.24936858714048
aF33.257842831384124
aF33.26606284830046
aF33.2740362647093
aF33.28177047862588
aF33.289272666124965
aF33.296549787999076
aF33.30360859621696
aF33.31045564018831
aF33.31709727284052
aF33.32353965651316
aF33.32673238994013
aF33.329829341364295
aF33.33283338424573
aF33.33574730584073
aF33.33857380978787
aF33.3413155186166
aF33.3463563566399
aF33.35124596952251
aF33.37098315783087
aF33.401869252492645
aF33.443717004338055
aF33.46862782527711
aF33.48164707363161
aF33.48707789851106
aF33.49479719903343
aF33.48469561999925
aF33.47489708833609
aF33.465392512622834
aF33.456173074180974
aF33.447230218892365
aF33.43855564926242
aF33.43014131672137
aF33.413673256325715
aF33.39365587319123
aF33.37423901155077
aF33.35540465575953
aF33.33713533064203
aF33.31941408527805
aF33.30222447727499
aF33.285550557512025
aF33.269376855341946
aF33.25368836423697
aF33.22850599984874
aF33.19532689085651
aF33.16314315513404
aF33.13192493148324
aF33.08881373339679
aF33.04699587125293
aF33.00643254497339
aF32.96708611848224
aF32.92892008478582
aF32.89189903210029
aF32.855988610995325
aF32.819518501231975
aF32.772670806645294
aF32.72722854289621
aF32.68314954705961
aF32.64260851044891
aF32.60328370493653
aF32.563912456901484
aF32.52572234630749
aF32.48867793903131
aF32.43333142259484
aF32.37122761828972
aF32.30840798015867
aF32.26040766538831
aF32.21384736006105
aF32.16868386389361
aF32.119589934484004
aF32.071968822956684
aF32.010624879866626
aF31.942957344236643
aF31.88536860804731
aF31.854982347486857
aF31.825507674743214
aF31.80359934514019
aF31.782348265425256
aF31.76173471810177
aF31.74173957719799
aF31.72234429052132
aF31.703530862444953
aF31.685281837210876
aF31.667580282733823
aF31.65040977489108
aF31.63375438228362
aF31.617598651454383
aF31.601927592550023
aF31.586726665412794
aF31.57198176608968
aF31.557679213746262
aF31.543805737973145
aF31.53034846647322
aF31.517294913118295
aF31.504632966364017
aF31.492350878012367
aF31.48043725231127
aF31.4688810353812
aF31.457671504959038
aF31.446798260449537
aF31.46004820826675
aF31.472900657649443
aF31.485367533550658
aF31.497460403174834
aF31.509190486710285
aF31.520568667739674
aF31.53160550333818
aF31.542311233868734
aF31.55269579248337
aF31.562768814339567
aF31.572539645540076
aF31.58201735180457
aF31.59256621341658
aF31.602798609180226
aF31.617157716895445
aF31.637833913269922
aF31.656866361854593
aF31.675327836981726
aF31.721439158097215
aF31.756696816464967
aF31.786469522065076
aF31.81534904649718
aF31.83561816125079
aF31.855279202561793
aF31.874350412633465
aF31.892849486402987
aF31.910793587959425
aF31.92819936646917
aF31.94508297162362
aF31.96146006862344
aF31.97734585271326
aF31.992755063280388
aF31.989091083430097
aF31.985537022975315
aF31.982089584334176
aF31.97874556885227
aF31.97550187383482
aF31.972355489667894
aF31.969303497025976
aF31.966343064163315
aF31.94692522762745
aF31.928089926187663
aF31.90981968379107
aF31.892097548666374
aF31.83855986129104
aF31.78662830453696
aF31.736254694485506
aF31.687392292735595
aF31.639995763038183
aF31.59402112923169
aF31.549425734439396
aF31.50616820149087
aF31.464208394530797
aF31.423507381779526
aF31.38239556791485
aF31.334829889426167
aF31.301686812481623
aF31.276091445089644
aF31.26396953175334
aF31.25626397542357
aF31.264857535909893
aF31.273193289581627
aF31.28127897064321
aF31.289122081272946
aF31.29672989858379
aF31.30410948137531
aF31.30800241946008
aF31.311778569402307
aF31.315441434846267
aF31.31899441432691
a.