(lp0
F42.62391173464139
aF42.51155920471072
aF42.6238258177718
aF41.80385747751038
aF41.80385747751038
aF41.85037901420742
aF41.71450411446389
aF41.13834913473376
aF41.13834913473376
aF41.35084441682388
aF41.0162246979968
aF41.1773181885747
aF41.1773181885747
aF41.46729580155608
aF41.46729580155608
aF41.43850600918712
aF41.43850600918712
aF41.685883589351924
aF41.61094304452481
aF41.50985711014539
aF41.50985711014539
aF41.50985711014539
aF41.350059160515414
aF41.685883589351924
aF41.685883589351924
aF41.601470803889555
aF41.48695554591527
aF41.33177264148611
aF41.33177264148611
aF40.62319256796618
aF40.526837534489104
aF40.64751179154451
aF40.64751179154451
aF40.88171592858628
aF41.095796645802174
aF40.96471244883363
aF40.96471244883363
aF40.73350593626057
aF40.51511280046466
aF40.57211702250081
aF40.57211702250081
aF40.74623137289816
aF41.00305610989945
aF40.75034149588504
aF40.75034149588504
aF40.47101224371896
aF40.639316888309494
aF40.37643609578333
aF40.37643609578333
aF40.848017661509594
aF41.04057276989747
aF40.91815501896744
aF40.91815501896744
aF40.58901501205021
aF40.44454210802893
aF40.541225220543254
aF40.541225220543254
aF40.77749623528583
aF41.522299049539335
aF41.372211834870214
aF41.372211834870214
aF41.34091691209585
aF41.05386015460361
aF40.66251873270395
aF40.66251873270395
aF40.76597235382869
aF40.75113531298085
aF41.16730584228824
aF41.16730584228824
aF41.473893744193916
aF41.69555622820839
aF41.97089358356723
aF41.97089358356723
aF42.0726692410918
aF42.12192675872256
aF42.07728804171334
aF42.07728804171334
aF42.30153569168618
aF42.01255828571902
aF42.08845433466582
aF42.08845433466582
aF42.111540412783526
aF42.12038643133512
aF42.13922874957935
aF42.13922874957935
aF42.281232677380046
aF42.17919189026296
aF41.495762620172286
aF41.495762620172286
aF41.947340150516396
aF42.34784776067064
aF43.020756879219796
aF43.020756879219796
aF43.79544235972934
aF43.74707998067914
aF43.34131380590435
aF43.34131380590435
aF42.83651385144819
aF42.4183469987855
aF42.743634737196544
aF42.743634737196544
aF42.75171751621141
aF42.780214217738845
aF43.267078004673486
aF43.267078004673486
aF43.033181805766176
aF42.71313457514415
aF42.823739685647055
aF42.823739685647055
aF42.76885178043932
aF43.14784551128393
aF43.382409422087484
aF43.382409422087484
aF43.36095295552137
aF43.044098708112706
aF42.940096980688544
aF42.940096980688544
aF43.18837762539897
aF43.34966107404272
aF43.929634008726104
aF43.929634008726104
aF43.740660275401936
aF43.70212642986823
aF43.88954308474286
aF43.88954308474286
aF43.861973059406054
aF43.87563712589397
aF43.87563712589397
aF43.87563712589397
aF43.536939349139196
aF43.44045909435264
aF43.29776873400926
aF43.29776873400926
aF43.61245118584256
aF43.96346638918643
aF44.09237130197524
aF44.09237130197524
aF44.102983120387535
aF44.255892086534644
aF44.13138039254565
aF44.13138039254565
aF43.895447403282894
aF44.1396985522245
aF44.25601345085773
aF44.25601345085773
aF44.269554515843616
aF44.33890615061238
aF44.089754979367086
aF44.089754979367086
aF44.203514380575555
aF44.68010756162914
aF45.250505813384976
aF45.250505813384976
aF45.73031776503007
aF45.22209461974174
aF45.36611321807969
aF45.36611321807969
aF44.83321685964967
aF44.823699785939134
aF45.32006671735628
aF45.32006671735628
aF44.92478251460295
aF45.279179559290824
aF45.53735427937843
aF45.53735427937843
aF45.17625800251029
aF45.945117884513856
aF46.46379533942261
aF46.46379533942261
aF46.351156269288474
aF46.957661490498545
aF46.511496814631755
aF46.511496814631755
aF45.86002714612967
aF46.24264616367396
aF45.87415115444236
aF45.87415115444236
aF45.858887880717845
aF46.46391093667482
aF46.077971345962865
aF46.077971345962865
aF46.46921759179672
aF46.73399625807748
aF46.60359187220042
aF46.60359187220042
aF46.864728041193196
aF46.579870396683965
aF46.73492090537064
aF46.73492090537064
aF46.72694848632585
aF46.71492459254858
aF47.49230509218046
aF47.49230509218046
aF47.60398260814162
aF47.624471986902385
aF47.5232262293923
aF47.5232262293923
aF47.04115084738972
aF47.16507900697692
aF46.88580604611325
aF46.88580604611325
aF46.71642970826752
aF46.64875609609007
aF46.058238439230394
aF46.058238439230394
aF46.16889795816958
aF46.330957438709376
aF46.52554374430378
aF46.52554374430378
aF46.774997494655196
aF46.75652214698234
aF46.99337137432257
aF46.99337137432257
aF47.02438695772652
aF46.92022818039145
aF46.98532589659643
aF46.98532589659643
aF47.006352421441406
aF46.56579791173185
aF46.69098777969631
aF46.69098777969631
aF46.764374670054664
aF46.343428648582425
aF46.48792265874009
aF46.48792265874009
aF46.38745410601341
aF46.24194397743784
aF46.16749926388964
aF46.16749926388964
aF46.07242356215511
aF45.70492250738699
aF45.71390097319961
aF45.71390097319961
aF45.72948758904095
aF45.448408787636616
aF45.71390097319961
aF45.71390097319961
aF45.43795133888631
aF45.40573382363179
aF45.38110915743879
aF45.38110915743879
aF44.8185986740926
aF44.43051929610856
aF44.21043704987121
aF44.21043704987121
aF44.261708924906245
aF44.060311337486596
aF44.14736674179305
aF44.14736674179305
aF44.122407745207816
aF43.36842529421607
aF43.79071487181244
aF43.79071487181244
aF44.01878372141261
aF43.77077352794185
aF43.83081264041029
aF43.83081264041029
aF43.52073017629788
aF42.780214217738845
aF42.24447686023952
aF42.24447686023952
aF42.30885324019076
aF41.791068521911775
aF41.64479927482692
aF41.64479927482692
aF42.045706447437205
aF41.6352042672424
aF41.60055970035514
aF41.60055970035514
aF41.26561020919841
aF41.20589498178629
aF41.076607938418704
aF41.076607938418704
aF40.75431342201706
aF40.62332478517191
aF40.69690151557917
aF40.69690151557917
aF40.36247810370264
aF40.620931286637806
aF40.718124935244596
aF40.718124935244596
aF40.33825636734702
aF40.96853546854586
aF40.947045344700236
aF40.947045344700236
aF41.16734735541325
aF41.001080754620055
aF40.60298231474583
aF40.60298231474583
aF40.17608338030538
aF39.54560016218618
aF39.41470282557164
aF39.41470282557164
aF39.47288799567052
aF39.63507548856663
aF39.994761314667045
aF39.994761314667045
aF40.15255637195626
aF39.916782025918465
aF40.10424800451708
aF40.10424800451708
aF39.943154186997425
aF39.42812636224932
aF39.34724188981913
aF39.34724188981913
aF38.84391969995111
aF39.19805386441797
aF39.515822706108814
aF39.515822706108814
aF39.39648161539143
aF39.71728397668168
aF38.98407752892519
aF38.98407752892519
aF39.059632707266495
aF39.17159453429711
aF39.443055645726474
aF39.443055645726474
aF40.01424612032726
aF39.697565775694926
aF38.99751156424119
aF38.99751156424119
aF39.057007426344924
aF38.94152830787622
aF39.11102922989723
aF39.11102922989723
aF39.90275349306267
aF39.46550239014132
aF39.372896459187984
aF39.372896459187984
aF39.2356443940408
aF39.352182128584055
aF39.2356443940408
aF39.2356443940408
aF39.26797520821675
aF39.15835894410429
aF38.97922686448674
aF38.97922686448674
aF39.26054794574319
aF39.76619903809641
aF39.69960291589435
aF39.69960291589435
aF39.56253085504326
aF39.662726027562705
aF39.128559767171666
aF39.128559767171666
aF39.23812239421552
aF39.07235188263723
aF38.93417672415201
aF38.93417672415201
aF38.2454727585297
aF38.61917336968533
aF38.87546472792962
aF38.87546472792962
aF38.832843651910814
aF39.08621467646074
aF38.32168782572735
aF38.32168782572735
aF38.46954805985752
aF38.35539694240401
aF38.512056122685465
aF38.512056122685465
aF39.03847542459314
aF38.632222410811906
aF38.793610477334894
aF38.793610477334894
aF38.74792711189529
aF38.85731108813372
aF38.94531798520523
aF38.94531798520523
aF38.54088294529752
aF38.39854797161118
aF38.65253146272004
aF38.65253146272004
aF38.64191073983014
aF39.061662491021806
aF39.55479474234919
aF39.55479474234919
aF39.052490905170664
aF38.81406624255246
aF38.15981376682478
aF38.15981376682478
aF38.16198257510346
aF38.411484463267946
aF38.76552738298874
aF38.76552738298874
aF39.50124077115727
aF39.41452319478031
aF39.299956390123704
aF39.299956390123704
aF39.03773746375502
aF38.520004821967184
aF38.50607450049278
aF38.50607450049278
aF38.271208823405196
aF38.299934853281734
aF38.64396404396487
aF38.64396404396487
aF38.89286918494829
aF39.50598099249894
aF39.74124989679332
aF39.74124989679332
aF39.65854935709796
aF39.881771074796816
aF39.92570768050408
aF39.92570768050408
aF39.81491757033804
aF40.05601241835456
aF39.86913254000126
aF39.86913254000126
aF39.92354295683892
aF40.175995267113485
aF40.427225921439685
aF40.427225921439685
aF40.53753956837801
aF40.734698646585386
aF41.08304874922563
aF41.08304874922563
aF41.203665679520405
aF41.33686698657296
aF41.36246210617031
aF41.36246210617031
aF40.79709043413053
aF40.62186586468087
aF40.30348130706267
aF40.30348130706267
aF40.255040202672134
aF40.61016255488735
aF40.9610231796262
aF40.9610231796262
aF41.67763511230799
aF42.04681838764305
aF42.51058576806194
aF42.51058576806194
aF42.648058966308774
aF42.271097727939356
aF42.45821705291568
aF42.45821705291568
aF42.23569873989153
aF41.947425997927006
aF42.07750127183469
aF42.07750127183469
aF41.95978182755035
aF42.233270888268585
aF42.60067923277457
aF42.60067923277457
aF42.922529117695
aF42.65540149110295
aF42.530904147657004
aF42.530904147657004
aF42.38769917105227
aF42.66413760637044
aF42.66223916287828
aF42.66223916287828
aF43.045936355465074
aF43.04878058395644
aF42.8087732182683
aF42.8087732182683
aF42.96121808987293
aF42.640633588309875
aF43.03920360409797
aF43.03920360409797
aF43.124187605572644
aF43.45727686026099
aF43.66009456496716
aF43.66009456496716
aF43.51824778900226
aF43.66393040438956
aF43.61071858374527
aF43.61071858374527
aF44.01130253669576
aF44.189464131559404
aF43.845226999800815
aF43.845226999800815
aF44.05593922787256
aF43.555911557911685
aF43.59011661605831
aF43.59011661605831
aF44.092656457913996
aF43.91041183566974
aF44.34524062637317
aF44.34524062637317
aF44.525704150278465
aF44.84894895821139
aF45.16330502846033
aF45.16330502846033
aF45.609474027813015
aF45.73751910955463
aF45.394077966769245
aF45.394077966769245
aF45.48558268750522
aF45.23892734001327
aF45.13639539720828
aF45.13639539720828
aF45.21011331221285
aF45.11541460261254
aF45.04389948549498
aF45.04389948549498
aF45.19613425679029
aF45.067993337151144
aF44.92181249995652
aF44.92181249995652
aF45.08093037197796
aF44.610236966278265
aF44.69440506092457
aF44.69440506092457
aF44.89191392162819
aF45.08444496424875
aF45.3786101783511
aF45.3786101783511
aF45.5044560189233
aF45.28044933298338
aF44.39903068515404
aF44.39903068515404
aF44.52521888983254
aF44.80654761286987
aF44.77869982489233
aF44.77869982489233
aF45.12682459304624
aF44.725124840431555
aF44.045643107551655
aF44.045643107551655
aF44.148996717171414
aF43.88412893587997
aF43.91598535307218
aF43.91598535307218
aF44.444616936242966
aF44.50484140184217
aF44.86182943476977
aF44.86182943476977
aF45.217794348920314
aF44.79437476672922
aF45.00892109921793
aF45.00892109921793
aF45.283908005148476
aF45.23940494486665
aF45.36182660012712
aF45.36182660012712
aF45.21648097062826
aF45.09629860044988
aF45.02115794919026
aF45.02115794919026
aF44.92534089890485
aF44.830763581287016
aF44.940001777543635
aF44.940001777543635
aF45.20202859022895
aF45.68341455314363
aF45.680459123164745
aF45.680459123164745
aF45.431414546923094
aF45.53197923232088
aF45.60331783605498
aF45.60331783605498
aF45.71850969690777
aF45.87215271307038
aF45.367423609898765
aF45.367423609898765
aF45.44864783295263
aF45.40965876743625
aF45.388605269177965
aF45.388605269177965
aF45.91392358431427
aF45.57098150653275
aF45.63732977662721
aF45.63732977662721
aF46.139222802940395
aF46.28166937267794
aF46.81138391526681
aF46.81138391526681
aF46.572298675352606
aF46.386054107080504
aF45.69042825773249
aF45.69042825773249
aF45.3527003787054
aF45.736614332775005
aF45.48004316369846
aF45.48004316369846
aF45.94954667723883
aF45.99887747016904
aF45.81266520263529
aF45.81266520263529
aF46.06316517074001
aF46.087308871993166
aF46.52136395987869
aF46.52136395987869
aF46.772648674866595
aF46.594087964066055
aF47.02473221032869
aF47.02473221032869
aF46.33795479612258
aF46.31825622122448
aF46.41236018276139
aF46.41236018276139
aF46.33946952163863
aF46.58921999692499
aF46.50000262516794
aF46.50000262516794
aF46.63706540017955
aF46.613206450801044
aF47.09243580200142
aF47.09243580200142
aF47.071292131922085
aF47.09243580200142
aF47.21485651552115
aF47.21485651552115
aF47.239897440153804
aF47.49048527238114
aF47.807204567865604
aF47.807204567865604
aF47.89627821445916
aF47.353840715075584
aF47.15958404383461
aF47.15958404383461
aF46.776959973634455
aF46.48095313035491
aF46.724748778752144
aF46.724748778752144
aF46.54654718330351
aF46.49791294459489
aF46.35205168396001
aF46.35205168396001
aF46.16024599746924
aF46.34879123794654
aF46.549911784120226
aF46.549911784120226
aF46.556291532401936
aF46.52380418096472
aF46.270661558851195
aF46.270661558851195
aF46.00756243033584
aF46.023874472760056
aF46.181531879299435
aF46.181531879299435
aF46.12221049322387
aF46.13251283243061
aF46.19006885616756
aF46.19006885616756
aF46.11975167041368
aF46.20958696779679
aF45.7987541195855
aF45.7987541195855
aF45.33134306484312
aF44.66459476353306
aF44.382363495572484
aF44.382363495572484
aF44.781834707016664
aF44.90045413189047
aF45.25599655967566
aF45.25599655967566
aF45.33861047285608
aF44.85360573315845
aF44.78384500506293
aF44.78384500506293
aF44.64149593348869
aF45.01864034503513
aF45.03363001170625
aF45.03363001170625
aF45.078934676437285
aF44.97507719125532
aF44.79931651002753
aF44.79931651002753
aF45.05149370399318
aF45.02619544628646
aF44.949974907007736
aF44.949974907007736
aF44.42079640574122
aF44.092653689418604
aF43.486304922588126
aF43.486304922588126
aF42.659792664243575
aF42.7274603066671
aF42.66485575965525
aF42.66485575965525
aF42.59011442435542
aF43.23786182632647
aF43.15985909963099
aF43.15985909963099
aF43.17074396817392
aF42.968383521164434
aF43.059526271597264
aF43.059526271597264
aF42.98835916195802
aF42.66645797042669
aF43.112164077047325
aF43.112164077047325
aF42.88271358045614
aF42.888000830469764
aF43.112164077047325
aF43.112164077047325
aF42.99438865776193
aF43.392699750091175
aF43.53507896611579
aF43.53507896611579
aF43.738522490013025
aF43.74148494144675
aF42.821091462309056
aF42.821091462309056
aF42.65430684676666
aF42.27246363344139
aF42.27246363344139
aF42.27246363344139
aF42.30783474558081
aF42.25713292691691
aF41.860658108367396
aF41.860658108367396
aF41.634167827207285
aF41.94468315904294
aF42.118893868466266
aF42.118893868466266
aF42.54660530579232
aF43.08923590615831
aF43.16623933990544
aF43.16623933990544
aF43.14814115301999
aF43.29381868498233
aF43.01765966401182
aF43.01765966401182
aF43.395100709930375
aF43.53325635855521
aF43.70607728229851
aF43.70607728229851
aF43.90811411745627
aF43.793836855023045
aF44.413622056963
aF44.413622056963
aF44.413622056963
aF44.071257717881586
aF43.79543957244578
aF43.79543957244578
aF43.42980484896
aF43.06169493079087
aF42.8106637379929
aF42.8106637379929
aF43.08376368609612
aF42.78757543175501
aF42.9470541817553
aF42.9470541817553
aF43.358127797377854
aF43.083885518906605
aF42.89647899485749
aF42.89647899485749
aF43.01464736221038
aF42.90755443437743
aF42.69711870035846
aF42.69711870035846
aF42.88665737568475
aF42.78757543175501
aF42.56233939029902
aF42.56233939029902
aF42.70659803385187
aF42.007460158695324
aF41.18937898786834
aF41.18937898786834
aF40.88752913863223
aF40.80516540142314
aF41.46351876857384
aF41.46351876857384
aF41.582643145157334
aF41.959741098425226
aF41.4558341086104
aF41.4558341086104
aF41.29922784633055
aF41.940562015637084
aF41.93772849462716
aF41.93772849462716
aF42.58009313111806
aF42.576416250115805
aF42.43705558263247
aF42.43705558263247
aF41.905009069993646
aF41.667357741664816
aF41.585760643292915
aF41.585760643292915
aF41.772070618884364
aF42.44113139148228
aF42.534418507985976
a.