(lp0
F41.76366671428498
aF41.76366671428498
aF41.43472782487988
aF41.285104321863926
aF41.523514669495555
aF41.523514669495555
aF41.57433161011882
aF41.55354403037574
aF41.59679623518198
aF41.59679623518198
aF41.67759410745704
aF41.696763869483924
aF41.491641018572196
aF41.491641018572196
aF41.33543177374436
aF41.38765502273897
aF41.290335984381684
aF41.290335984381684
aF41.51675260747537
aF41.36977314275258
aF41.12469723482776
aF41.12469723482776
aF40.81447102342348
aF40.533367210507876
aF40.629971150175116
aF40.629971150175116
aF40.85793048354796
aF40.93521880571637
aF41.003583053706265
aF41.003583053706265
aF40.95627849361896
aF40.52137474868588
aF40.63754613962315
aF40.63754613962315
aF40.447345932319834
aF40.286283262924925
aF40.22135408236215
aF40.22135408236215
aF39.994762840745786
aF40.060327432316065
aF40.11003542015701
aF40.11003542015701
aF40.0488684638452
aF39.844747230167464
aF39.707628999743235
aF39.707628999743235
aF40.08956647113747
aF40.48191146981575
aF40.36341866599322
aF40.36341866599322
aF40.646450166439045
aF40.48191146981575
aF40.209941003049856
aF40.209941003049856
aF40.36381786908605
aF40.356056895155156
aF39.98670433328433
aF39.98670433328433
aF40.23710548987247
aF40.21858003072087
aF40.37081840284669
aF40.37081840284669
aF40.83043310544385
aF41.04316040005935
aF41.22174991452479
aF41.22174991452479
aF41.25409248164811
aF41.72697133412333
aF41.387781848368306
aF41.387781848368306
aF41.481226340018864
aF41.262820569225816
aF41.1397496821049
aF41.1397496821049
aF41.768535953551506
aF41.536344860085336
aF41.55779020542133
aF41.55779020542133
aF41.63918120151755
aF41.24279204306872
aF41.38160675867586
aF41.38160675867586
aF41.61933379227135
aF41.495762620172286
aF41.666018875172725
aF41.666018875172725
aF42.38752925942664
aF42.69597795112703
aF43.31763475155066
aF43.31763475155066
aF43.79507164945903
aF43.74831469968301
aF43.76398771928525
aF43.76398771928525
aF43.39796424696958
aF43.25663221367043
aF43.069220606738114
aF43.069220606738114
aF43.021132842984855
aF43.12869379561158
aF42.749528848829144
aF42.749528848829144
aF43.110283947467224
aF43.41401399695869
aF43.56103443105002
aF43.56103443105002
aF43.95691444071612
aF43.403440446330116
aF43.14638566210529
aF43.14638566210529
aF43.02117398598988
aF42.72328895281018
aF43.3036691710053
aF43.3036691710053
aF43.810481352835964
aF43.61835383202379
aF43.91151964595609
aF43.91151964595609
aF43.111787491394104
aF42.62695308025487
aF42.378440874772195
aF42.378440874772195
aF42.24558501340702
aF42.60832644474405
aF42.62391173464139
aF42.62391173464139
aF43.110283947467224
aF43.34600582179545
aF43.34355567277995
aF43.34355567277995
aF43.45031847732822
aF43.46659603308183
aF43.3395675478468
aF43.3395675478468
aF43.36805093380235
aF43.64397308585402
aF43.750002790178485
aF43.750002790178485
aF43.608323896773854
aF43.94360343898899
aF43.425166864244744
aF43.425166864244744
aF43.365062971514725
aF43.63654793209114
aF43.55248102594874
aF43.55248102594874
aF43.991135137697064
aF44.17231025386902
aF44.47348363992091
aF44.47348363992091
aF44.670839333045336
aF44.73498214965205
aF44.636535350382395
aF44.636535350382395
aF44.483480408988626
aF44.71449687147055
aF44.57758006589467
aF44.57758006589467
aF44.730557272475934
aF44.99644218791428
aF45.03135165455216
aF45.03135165455216
aF45.88027366656339
aF45.892630616710946
aF45.90615693064085
aF45.90615693064085
aF45.540753233539355
aF45.33313107912909
aF45.55533529915843
aF45.55533529915843
aF45.65893964527921
aF46.009207426000614
aF45.72905781355685
aF45.72905781355685
aF45.48574102637826
aF45.76596374490545
aF45.64202111866734
aF45.64202111866734
aF45.906632911949664
aF46.35018709509164
aF45.940962348261436
aF45.940962348261436
aF46.316387636255435
aF46.44829744928763
aF46.5132762045553
aF46.5132762045553
aF47.27832732209337
aF47.6992480204746
aF47.683506549697036
aF47.683506549697036
aF47.26560692148415
aF46.90687978424647
aF46.34645769230913
aF46.34645769230913
aF46.31825358575575
aF46.528678992101206
aF46.54039953698829
aF46.54039953698829
aF46.68127677733869
aF46.963598561478975
aF46.938758721471324
aF46.938758721471324
aF46.78653892530815
aF46.537962809107526
aF46.64782974084915
aF46.64782974084915
aF46.833257455639895
aF46.86414978591044
aF47.36843158208719
aF47.36843158208719
aF47.15820696734557
aF46.99762346468303
aF47.05354797412332
aF47.05354797412332
aF46.86414978591044
aF46.606716631363874
aF46.71353440786728
aF46.71353440786728
aF46.418874545409864
aF46.25257066335611
aF46.396647786033526
aF46.396647786033526
aF46.05566222993108
aF46.60115844858366
aF46.601619472932484
aF46.601619472932484
aF46.077112993295
aF46.065038727529036
aF45.326576477341085
aF45.326576477341085
aF45.5441921379664
aF45.94954667723883
aF46.00638967170756
aF46.00638967170756
aF46.103473550671865
aF45.78035941966544
aF45.26136392612495
aF45.26136392612495
aF44.79437476672922
aF45.114021128067826
aF44.91560554076668
aF44.91560554076668
aF44.910073177980486
aF44.85665510084248
aF44.63689770491168
aF44.63689770491168
aF44.37968725244692
aF44.843289958441666
aF45.153384424647506
aF45.153384424647506
aF45.15960195171676
aF45.3501594582712
aF44.618505523563314
aF44.618505523563314
aF44.49598109924508
aF44.15706828682697
aF44.009829723650235
aF44.009829723650235
aF43.562605081921326
aF42.97780870420949
aF42.374236603558714
aF42.374236603558714
aF41.85958204969323
aF42.23676377123592
aF42.153067545738885
aF42.153067545738885
aF42.09529275198119
aF42.13440090066325
aF41.18754297465512
aF41.18754297465512
aF40.826860270307954
aF40.64777606731702
aF40.14583096836613
aF40.14583096836613
aF40.207120623443366
aF40.409678774668265
aF40.752327507341526
aF40.752327507341526
aF40.390564555080495
aF40.30772288797846
aF40.31803801591944
aF40.31803801591944
aF39.65019777496387
aF40.204029818811385
aF40.70486140729999
aF40.70486140729999
aF40.57850404135637
aF40.67154935280696
aF40.23585100447967
aF40.23585100447967
aF39.95612828465741
aF39.71755444207731
aF39.71755444207731
aF39.71755444207731
aF39.635485107255846
aF39.78126841122905
aF39.98422845811364
aF39.98422845811364
aF39.934094876355346
aF39.81776879628067
aF39.375640185767935
aF39.375640185767935
aF38.969945037309685
aF38.750387472861156
aF38.69404825185894
aF38.69404825185894
aF38.69404825185894
aF38.758051078937136
aF38.529021187058625
aF38.529021187058625
aF38.54359247018643
aF38.811653951124974
aF38.90129235481773
aF38.90129235481773
aF39.26742497366615
aF39.402922886903326
aF39.468239679004874
aF39.468239679004874
aF39.375640185767935
aF39.375640185767935
aF39.352182128584055
aF39.352182128584055
aF39.12152103642092
aF38.87004779048226
aF38.87004779048226
aF38.87004779048226
aF38.66724404090302
aF38.872685697792676
aF39.07774233869022
aF39.07774233869022
aF38.34399195115188
aF38.55199854478202
aF38.27859046884107
aF38.27859046884107
aF38.37454034486521
aF38.51626362300168
aF38.52018862415688
aF38.52018862415688
aF38.604488321368635
aF38.48442575108306
aF38.769893142202655
aF38.769893142202655
aF38.93528346921498
aF38.722088612113566
aF38.71302419325439
aF38.71302419325439
aF38.45972109212929
aF38.268291811931256
aF37.78823795487658
aF37.78823795487658
aF38.15703220174903
aF38.2775588143897
aF38.14330215153687
aF38.14330215153687
aF38.495557652596425
aF38.26594081637743
aF38.389640873120804
aF38.389640873120804
aF38.399908574313365
aF38.509439475418716
aF38.375855675517194
aF38.375855675517194
aF38.25295669996063
aF38.74109650737508
aF39.15095609664277
aF39.15095609664277
aF38.98661378842102
aF39.11631917475429
aF38.604116775691814
aF38.604116775691814
aF38.382234469238014
aF38.74109650737508
aF38.644008267776776
aF38.644008267776776
aF38.5195801721751
aF38.651272921308816
aF38.2573761653186
aF38.2573761653186
aF38.37927977712632
aF38.63632204104546
aF38.39653400037805
aF38.39653400037805
aF38.500605590813436
aF38.64941108916231
aF38.64941108916231
aF38.64941108916231
aF38.05920776761436
aF38.386688341101724
aF38.1435357733006
aF38.1435357733006
aF37.92137927158472
aF38.536400963488404
aF37.92137927158472
aF37.92137927158472
aF37.879634359623246
aF38.271208823405196
aF38.398408093834114
aF38.398408093834114
aF38.768732871187574
aF39.13564401939107
aF39.40790106077238
aF39.40790106077238
aF38.760466706386225
aF39.00005008009605
aF39.24614954242327
aF39.24614954242327
aF38.84952880887843
aF39.77113174052098
aF39.64765778174198
aF39.64765778174198
aF39.145025326502214
aF39.65855243513056
aF39.395564446354555
aF39.395564446354555
aF39.78674230546213
aF40.31794869911771
aF40.29503921758701
aF40.29503921758701
aF40.4051805252897
aF41.04798277197599
aF41.293123765495146
aF41.293123765495146
aF41.31548128898688
aF41.32502055920541
aF40.45499887027251
aF40.45499887027251
aF40.463807311577064
aF40.85123454998407
aF41.43377033554574
aF41.43377033554574
aF42.23505999721973
aF42.38043844157349
aF42.50067640776071
aF42.50067640776071
aF42.11769398345991
aF41.76163964571359
aF41.76163964571359
aF41.76163964571359
aF41.660139951063385
aF42.23991680021473
aF42.50850960304154
aF42.50850960304154
aF42.61698341495588
aF42.86915161460803
aF42.66561252563357
aF42.66561252563357
aF43.024312088214295
aF43.076241967821574
aF42.88023553584303
aF42.88023553584303
aF42.549647873744945
aF42.475978390548875
aF42.61761929776668
aF42.61761929776668
aF42.72821882074831
aF43.63374061792663
aF43.62644103547613
aF43.62644103547613
aF43.43440861301671
aF43.792114216809914
aF43.403938248375
aF43.403938248375
aF43.20291873820564
aF43.74473461618695
aF43.793591564398724
aF43.793591564398724
aF43.90172074058573
aF44.28297015007575
aF43.919265197277035
aF43.919265197277035
aF43.59234708764114
aF44.092656457913996
aF44.276345551441175
aF44.276345551441175
aF44.6920288351989
aF44.68888901905945
aF44.087919307971994
aF44.087919307971994
aF43.92643691846133
aF44.097105205444045
aF44.583880630889176
aF44.583880630889176
aF45.142855928776264
aF45.36516336215489
aF45.34765877363461
aF45.34765877363461
aF45.51157508587101
aF45.48558268750522
aF45.63539586186089
aF45.63539586186089
aF45.4072823351332
aF45.442348971836005
aF44.92578379733277
aF44.92578379733277
aF44.55754979956399
aF44.765030537065144
aF44.40166452397928
aF44.40166452397928
aF44.852522552214104
aF45.31418369716732
aF44.93183041859774
aF44.93183041859774
aF45.08731762854717
aF44.91175701271049
aF44.2042075247439
aF44.2042075247439
aF44.20750464340727
aF44.086777166157624
aF44.42792838195925
aF44.42792838195925
aF44.612778985713554
aF44.87382892578855
aF44.79397280885008
aF44.79397280885008
aF44.54009506455251
aF44.37749772900113
aF44.374090824753104
aF44.374090824753104
aF44.24942343815764
aF44.045643107551655
aF44.17357453840474
aF44.17357453840474
aF44.30186810483419
aF44.10690083390438
aF44.33707941811374
aF44.33707941811374
aF44.73550606542512
aF44.32965057297288
aF45.153381721188666
aF45.153381721188666
aF44.63508180057196
aF44.40559574641185
aF44.623468110961525
aF44.623468110961525
aF43.859754907955626
aF44.263820063360576
aF44.4172718992145
aF44.4172718992145
aF44.32879829634949
aF44.2897150298111
aF44.245679741430685
aF44.245679741430685
aF44.30007842252864
aF44.475990933662736
aF44.75638266283927
aF44.75638266283927
aF45.25134073031013
aF45.1764566056847
aF44.90321759289987
aF44.90321759289987
aF45.47228293834608
aF45.22054246620113
aF45.294638182094744
aF45.294638182094744
aF45.589937297746964
aF45.372183215772466
aF45.50967606162864
aF45.50967606162864
aF45.88239147708247
aF46.19041770215983
aF46.20491098171411
aF46.20491098171411
aF46.19228874024863
aF45.866617294403234
aF45.53197923232088
aF45.53197923232088
aF45.337180778446076
aF45.44864783295263
aF45.81620092912686
aF45.81620092912686
aF45.60687246902872
aF45.674547689502354
aF45.85990736488273
aF45.85990736488273
aF45.47465865818154
aF45.845893461308236
aF46.029857730981256
aF46.029857730981256
aF46.22360680617508
aF46.17451610466535
aF46.296914550269975
aF46.296914550269975
aF46.50964124260286
aF46.115537753187105
aF46.56591587722048
aF46.56591587722048
aF46.91056463333979
aF46.936189229367564
aF46.775689069116076
aF46.775689069116076
aF46.657670670768326
aF46.47537465388257
aF46.203043096816145
aF46.203043096816145
aF46.58493324948931
aF46.56452648694202
aF46.51799991837837
aF46.51799991837837
aF46.45771294195265
aF46.56452648694202
aF46.99946236810188
aF46.99946236810188
aF46.86357673309571
aF47.21725831115012
aF47.50549413127128
aF47.50549413127128
aF47.11559349504817
aF47.458256740134274
aF47.82617502558745
aF47.82617502558745
aF47.279316198887386
aF47.48411792460848
aF47.45988746266419
aF47.45988746266419
aF46.9815351860441
aF46.87083575252979
aF46.88246815508437
aF46.88246815508437
aF46.69318907774452
aF46.6594078594754
aF46.662764322516836
aF46.662764322516836
aF46.436669322987626
aF46.36777656007456
aF46.29213399619719
aF46.29213399619719
aF46.49942245945104
aF46.40840167570685
aF46.37162007561845
aF46.37162007561845
aF46.561047586407994
aF46.745435522492464
aF46.75386431221488
aF46.75386431221488
aF46.716312122848215
aF46.40048891007238
aF46.09175843155151
aF46.09175843155151
aF46.147024298024895
aF46.2435806355866
aF46.09503705830217
aF46.09503705830217
aF45.541584169546354
aF45.20166941572789
aF44.569705161287104
aF44.569705161287104
aF44.793168882270706
aF45.16713482566029
aF44.85665510084248
aF44.85665510084248
aF45.078934676437285
aF44.84894895821139
aF44.90406168554661
aF44.90406168554661
aF44.75252316996356
aF44.249179293678004
aF43.66355717971152
aF43.66355717971152
aF43.28558332323607
aF43.62074516992674
aF43.897291123356915
aF43.897291123356915
aF44.39903068515404
aF44.4708526821923
aF44.44838232608978
aF44.44838232608978
aF44.21629851861754
aF44.21153596188867
aF43.65510635134079
aF43.65510635134079
aF43.29626882921033
aF43.12898673827514
aF42.71583235738682
aF42.71583235738682
aF43.06884647990209
aF43.135078645640895
aF43.357217007109234
aF43.357217007109234
aF43.15572954067049
aF43.20000271267352
aF42.82125822824453
aF42.82125822824453
aF42.05268534501171
aF41.91132403099728
aF41.406827826156885
aF41.406827826156885
aF41.1462265935848
aF41.50556485656472
aF41.80450572867415
aF41.80450572867415
aF41.79701226612974
aF42.128764089062415
aF41.997433538588105
aF41.997433538588105
aF41.602378953255936
aF41.75552130641303
aF41.932449514255964
aF41.932449514255964
aF42.1890928518742
aF42.17475501929442
aF42.20048122041234
aF42.20048122041234
aF42.19830590775387
aF42.43158555987509
aF42.799185315515935
aF42.799185315515935
aF42.25674727696972
aF42.39848572528122
aF42.35375804238037
aF42.35375804238037
aF41.975696616557926
aF42.54406464506462
aF42.26390217144901
aF42.26390217144901
aF42.314086704001426
aF42.56982287179426
aF42.66371700899299
aF42.66371700899299
aF42.702554709419175
aF42.5135907152973
aF42.65004390521993
aF42.65004390521993
aF42.44354591505934
aF42.87935445043381
aF43.15489226683923
aF43.15489226683923
aF43.23290536669161
aF43.68284466433877
aF43.910573074538384
aF43.910573074538384
aF44.38759449352798
aF44.249787583353154
aF43.770402608740646
aF43.770402608740646
aF43.155018141814196
aF42.56538370141208
aF42.36675747177113
aF42.36675747177113
aF42.78252400632252
aF43.17203334209109
aF43.310276255143826
aF43.310276255143826
aF43.510303197920834
aF43.259874572713166
aF42.86890103304784
aF42.86890103304784
aF42.50889153312516
aF42.44901727228574
aF42.56018257274045
aF42.56018257274045
aF42.03367354769343
aF42.22849570620975
aF42.29034050927735
aF42.29034050927735
aF41.95459436439888
aF41.84788505287259
aF41.85549627419767
aF41.85549627419767
aF41.68757027730208
aF41.704923680300475
aF42.26045197085864
aF42.26045197085864
aF41.924852263361494
aF41.96270113008471
aF41.92304700420984
aF41.92304700420984
aF41.42260584983307
aF41.57186366561899
aF42.048576238344566
aF42.048576238344566
aF42.250996775409035
aF42.73150413117352
aF42.75462557212377
aF42.75462557212377
aF42.52006936527885
aF42.6139442223728
aF42.380138884564786
aF42.380138884564786
aF42.96792186701973
aF43.04710753113239
aF43.38933649509261
aF43.38933649509261
aF43.15347791603824
a.