(lp0
F39.900813916158086
aF39.56803346719341
aF38.891202536892905
aF38.891202536892905
aF38.30994141640163
aF37.9596632645266
aF38.560306233183304
aF38.560306233183304
aF38.88676093198365
aF39.42297115003986
aF39.414340466066406
aF39.414340466066406
aF39.15757648142231
aF39.044192584933484
aF38.697582995421044
aF38.697582995421044
aF38.85202829375916
aF38.78089431243012
aF38.82630466054876
aF38.82630466054876
aF38.840211272838744
aF38.91720478303908
aF38.94896625914801
aF38.94896625914801
aF38.697488361245746
aF38.616608235843614
aF38.56637440018182
aF38.56637440018182
aF38.42029118075581
aF38.62984300392395
aF38.218588703155135
aF38.218588703155135
aF37.612964618890054
aF37.496640474514514
aF37.53861943677138
aF37.53861943677138
aF37.93385903296437
aF38.49144144421101
aF38.49260848790485
aF38.49260848790485
aF38.277085232632984
aF38.38935946225041
aF37.85049098715564
aF37.85049098715564
aF37.880011400102234
aF37.729077332571855
aF37.73165427562115
aF37.73165427562115
aF38.16820681822438
aF38.082801954261456
aF37.895402405008184
aF37.895402405008184
aF37.89740113378901
aF37.76979768528685
aF38.57869455837153
aF38.57869455837153
aF39.04727828423192
aF39.23325802372587
aF39.66458491998876
aF39.66458491998876
aF39.068708881557306
aF39.53217019679985
aF39.13844648378449
aF39.13844648378449
aF39.04562135342451
aF39.26132369248313
aF39.3624235867788
aF39.3624235867788
aF39.87125582441096
aF40.18947585782331
aF40.35306824997946
aF40.35306824997946
aF40.26827152245611
aF40.593759021361585
aF40.13515678986286
aF40.13515678986286
aF39.76004074248101
aF40.01361310102398
aF39.20131273212512
aF39.20131273212512
aF39.46175957493533
aF39.64157037205388
aF39.1822975513975
aF39.1822975513975
aF39.68717704100879
aF39.777286784612556
aF39.45683460282895
aF39.45683460282895
aF40.032234936165814
aF40.01266889217714
aF40.08871235645312
aF40.08871235645312
aF40.48795695269305
aF40.21454912015675
aF40.318349866251964
aF40.318349866251964
aF40.40304149094162
aF41.004416623300315
aF40.55595996486675
aF40.55595996486675
aF40.922331397798565
aF40.94739563127764
aF40.85206973413342
aF40.85206973413342
aF41.59350494152077
aF40.98338167162621
aF40.63045786654776
aF40.63045786654776
aF40.668981600885026
aF40.16434287370531
aF40.684646717350574
aF40.684646717350574
aF40.62833219507201
aF40.28288640973981
aF40.29628731638158
aF40.29628731638158
aF40.29829873405793
aF40.843609530171605
aF40.87109953676008
aF40.87109953676008
aF40.843609530171605
aF40.71755082654776
aF40.34329764705734
aF40.34329764705734
aF40.80326572886813
aF41.0282867361044
aF41.137515311642545
aF41.137515311642545
aF41.221441937305215
aF40.71489752976636
aF40.48293067184304
aF40.48293067184304
aF40.985095780928404
aF41.232575036500265
aF41.80329681974856
aF41.80329681974856
aF42.1757333127564
aF42.16369698864178
aF42.605157702919314
aF42.605157702919314
aF42.59307077136344
aF42.80704801052042
aF42.869823621561004
aF42.869823621561004
aF42.447531951221855
aF42.40183544864612
aF41.88627413529998
aF41.88627413529998
aF41.82434844736825
aF42.10499745335315
aF42.28927538395521
aF42.28927538395521
aF42.96004457268987
aF42.96859090879639
aF42.706389373949364
aF42.706389373949364
aF42.96356360745187
aF43.31468276651766
aF43.31530699778659
aF43.31530699778659
aF44.03648805562766
aF44.134479660712834
aF43.526848586264116
aF43.526848586264116
aF43.773651531022345
aF43.541360769459764
aF43.524243143458996
aF43.524243143458996
aF44.0180904305974
aF44.13203179628998
aF44.00091274355141
aF44.00091274355141
aF44.02778025940341
aF44.22928319775825
aF43.9996448849306
aF43.9996448849306
aF44.38346090113411
aF44.239539337795016
aF43.802632960780734
aF43.802632960780734
aF43.30421040351475
aF43.553389134235296
aF43.20121068317631
aF43.20121068317631
aF43.80731736465382
aF44.7912802793412
aF44.39797628103743
aF44.39797628103743
aF45.491636744261854
aF45.48368526186065
aF45.05141377151776
aF45.05141377151776
aF45.28080788258973
aF45.18243050531022
aF44.88553421360411
aF44.88553421360411
aF44.749140725863384
aF44.76024455013064
aF44.500227681124
aF44.500227681124
aF44.58823930123699
aF44.71980912442494
aF43.99379062187356
aF43.99379062187356
aF44.200012593677506
aF43.93385197782429
aF44.1254647638413
aF44.1254647638413
aF44.99144341392872
aF44.25727396517012
aF44.516364014135995
aF44.516364014135995
aF44.64137151545918
aF44.149603622229726
aF44.537219994559045
aF44.537219994559045
aF44.537343333116254
aF44.57030907646788
aF44.621408184406
aF44.621408184406
aF44.49172862471883
aF44.32112293790132
aF44.1258728113925
aF44.1258728113925
aF44.100656683567365
aF44.58787381352622
aF43.99808567391029
aF43.99808567391029
aF43.95818075482011
aF43.977584677896566
aF43.1455482069486
aF43.1455482069486
aF43.24618248822302
aF42.80363873852097
aF42.639952243685144
aF42.639952243685144
aF42.978013206064155
aF43.315554996877275
aF43.250678790283885
aF43.250678790283885
aF43.080417399106636
aF42.65945357704653
aF42.301788191277296
aF42.301788191277296
aF42.239065707884684
aF41.73749578840949
aF41.23061215779181
aF41.23061215779181
aF41.13607017607844
aF40.60479966530281
aF40.96954405456647
aF40.96954405456647
aF41.07314419213758
aF40.721795741807604
aF41.217645336789616
aF41.217645336789616
aF40.88853823009267
aF40.63081388686886
aF40.63896394625483
aF40.63896394625483
aF40.09248493960948
aF40.22667857212813
aF40.43648418111653
aF40.43648418111653
aF40.873569475158696
aF40.29535124590987
aF39.681463308117024
aF39.681463308117024
aF39.29019886132546
aF38.61185525471338
aF38.69274531535676
aF38.69274531535676
aF38.4432414411168
aF38.346901612532534
aF38.45588197400285
aF38.45588197400285
aF38.53205468543366
aF38.72092690863769
aF38.61101587468271
aF38.61101587468271
aF37.913971544553995
aF38.16353713174723
aF37.74038189766036
aF37.74038189766036
aF38.18192951136621
aF38.26824396407222
aF38.18829274954564
aF38.18829274954564
aF38.37491411329965
aF37.93789255357037
aF37.93789255357037
aF37.93789255357037
aF37.55736497762456
aF37.66518955091359
aF37.41244335737443
aF37.41244335737443
aF36.8737983119874
aF37.01514021949329
aF37.075631039702984
aF37.075631039702984
aF37.18325540376844
aF37.772848528241816
aF38.02504507208867
aF38.02504507208867
aF37.302441849947975
aF37.65615599054655
aF37.49232180508347
aF37.49232180508347
aF37.16538864698242
aF37.349747818551265
aF36.57545176583606
aF36.57545176583606
aF37.114790723237114
aF36.90907291013874
aF36.90907291013874
aF36.90907291013874
aF37.405512471843636
aF36.869547398776476
aF37.17221652848569
aF37.17221652848569
aF37.224912247000326
aF36.91872903704754
aF37.38313169273342
aF37.38313169273342
aF37.388907712339964
aF37.79171529736627
aF37.98284524891632
aF37.98284524891632
aF37.8288478348948
aF37.784425915936254
aF37.49807937789948
aF37.49807937789948
aF37.43581747053883
aF37.07504991462419
aF36.99645979157161
aF36.99645979157161
aF36.950746487934786
aF37.09732699160244
aF36.898099226958834
aF36.898099226958834
aF36.645808535262596
aF36.524481101400504
aF36.158501847551356
aF36.158501847551356
aF36.313933720082744
aF36.254552515856545
aF36.3614866973801
aF36.3614866973801
aF36.25633868341593
aF36.687486690798266
aF36.72794432759952
aF36.72794432759952
aF36.86896302542713
aF37.20271156847139
aF36.78450395812498
aF36.78450395812498
aF37.23100462085498
aF36.943732289371496
aF37.0046350823532
aF37.0046350823532
aF37.25710234042212
aF37.017910308305495
aF37.21939939609786
aF37.21939939609786
aF37.61626994597467
aF37.71690848342259
aF37.9770165255209
aF37.9770165255209
aF37.67737348404543
aF37.17628507361918
aF37.07417574047921
aF37.07417574047921
aF37.1495473348936
aF37.27608605791218
aF37.39251849572485
aF37.39251849572485
aF37.64582973044624
aF37.60708019068683
aF37.60708019068683
aF37.60708019068683
aF37.41013320487178
aF37.644250551835604
aF37.59473060857399
aF37.59473060857399
aF38.237187651960625
aF38.540602638747266
aF38.208930412682975
aF38.208930412682975
aF38.19606913368999
aF38.08010612408893
aF37.71232857518215
aF37.71232857518215
aF38.08010612408893
aF38.32281385184858
aF38.2181175847104
aF38.2181175847104
aF38.58709140433981
aF38.546488648246225
aF38.25130525244367
aF38.25130525244367
aF38.44885979240396
aF38.14089064327811
aF38.08648797679106
aF38.08648797679106
aF38.29532904366406
aF38.477221599684796
aF38.6881389411091
aF38.6881389411091
aF38.70000239724637
aF38.89152739762624
aF38.62779368942135
aF38.62779368942135
aF38.606119917924765
aF38.68995316081344
aF38.202287823137965
aF38.202287823137965
aF37.93049126980495
aF38.30026154192276
aF38.60905725031126
aF38.60905725031126
aF39.219767790578196
aF40.01536875161998
aF39.92796094755764
aF39.92796094755764
aF39.81704221292608
aF39.80687018672154
aF39.91389352699602
aF39.91389352699602
aF40.10245058557831
aF40.39466251580306
aF40.21835694495192
aF40.21835694495192
aF39.693574215285466
aF39.85418368291151
aF39.31396869772403
aF39.31396869772403
aF38.999126717987224
aF38.80131116401706
aF39.25403511055822
aF39.25403511055822
aF39.64157037205388
aF39.89698037406779
aF40.48146216846515
aF40.48146216846515
aF40.25686871225363
aF40.58990070279182
aF40.68729898663863
aF40.68729898663863
aF40.75917146598726
aF40.44289412921478
aF39.99647201238504
aF39.99647201238504
aF40.43648569052459
aF40.62195000570043
aF41.47844825836515
aF41.47844825836515
aF41.761940716192925
aF41.64112335536681
aF41.92351725258897
aF41.92351725258897
aF41.40417447628319
aF41.8160849546858
aF42.11987201030011
aF42.11987201030011
aF41.95042763675062
aF42.19591640583393
aF42.13508607461986
aF42.13508607461986
aF42.690200831927605
aF42.23957578735033
aF41.92944222142718
aF41.92944222142718
aF41.61998198450625
aF40.772153858650114
aF41.42568824394321
aF41.42568824394321
aF41.66692415285024
aF41.97586674116301
aF42.186956015011326
aF42.186956015011326
aF42.2762059306488
aF42.310041933771465
aF42.40310933929993
aF42.40310933929993
aF42.835674612771655
aF42.998238460920554
aF42.7478840622185
aF42.7478840622185
aF42.43803070590473
aF42.05777653874266
aF41.672753787134404
aF41.672753787134404
aF41.93094443919073
aF42.24017255805633
aF42.11470281694238
aF42.11470281694238
aF41.62331077653482
aF42.032304238637394
aF41.658195753506895
aF41.658195753506895
aF41.689035824876214
aF42.15238121610095
aF41.714027120307506
aF41.714027120307506
aF41.932618358765474
aF42.37330034386335
aF42.250398712985536
aF42.250398712985536
aF42.4670325374762
aF42.84970583375179
aF42.87855590666067
aF42.87855590666067
aF43.147094374125444
aF43.033136419254
aF42.62631733668181
aF42.62631733668181
aF41.95853811679379
aF42.287872495033966
aF42.417794463047876
aF42.417794463047876
aF42.777139537283084
aF43.26016803795236
aF42.99309111693485
aF42.99309111693485
aF43.480794240370514
aF43.480173788697215
aF43.29797172465184
aF43.29797172465184
aF43.36588915030885
aF42.99974592266869
aF42.83996039950609
aF42.83996039950609
aF42.8713355986914
aF42.65865377842461
aF42.77343678652967
aF42.77343678652967
aF42.909188833257204
aF43.111954548593594
aF43.20604364011185
aF43.20604364011185
aF43.30142523906546
aF43.43627471293435
aF43.05045073624375
aF43.05045073624375
aF43.07314874232119
aF43.054839893805784
aF42.64430063857449
aF42.64430063857449
aF42.957026809868374
aF43.007281019649746
aF43.22919929717644
aF43.22919929717644
aF43.89474660249077
aF43.829127662327764
aF43.72835122860082
aF43.72835122860082
aF43.58858616369657
aF42.89701967357406
aF43.25941602929139
aF43.25941602929139
aF43.096082639460256
aF42.95790346055732
aF43.31131345326386
aF43.31131345326386
aF43.14742679990459
aF43.678557740039906
aF43.86008471549046
aF43.86008471549046
aF44.16350900170581
aF44.222647796406314
aF44.06668586057244
aF44.06668586057244
aF44.08628568996826
aF44.161430384372174
aF44.116529651328676
aF44.116529651328676
aF44.13733394810877
aF43.94958104269169
aF44.171167530592
aF44.171167530592
aF44.42581679881854
aF44.56453388810504
aF44.257149846098315
aF44.257149846098315
aF44.12725737851832
aF44.56889581994796
aF44.45060680477264
aF44.45060680477264
aF44.927543120666805
aF44.678290681304325
aF44.01048153964647
aF44.01048153964647
aF44.60793561600755
aF44.51693026341916
aF44.403976564781054
aF44.403976564781054
aF44.82132769135275
aF43.89892899373372
aF44.27890398249063
aF44.27890398249063
aF44.66056334137255
aF44.21124881163588
aF44.628829492548874
aF44.628829492548874
aF44.67921962182895
aF44.63496146695155
aF44.905904769897745
aF44.905904769897745
aF45.14624537743629
aF44.89772448646479
aF44.390717121956506
aF44.390717121956506
aF44.106206160528025
aF43.935327337818364
aF43.78512262048178
aF43.78512262048178
aF44.20522374833799
aF44.737192377661984
aF44.52533952004185
aF44.52533952004185
aF44.61281729275652
aF44.631695926213695
aF44.491288264617744
aF44.491288264617744
aF44.39975926789328
aF44.33529253385501
aF44.09310495187286
aF44.09310495187286
aF43.50910521176142
aF43.442530059479154
aF42.71313171723364
aF42.71313171723364
aF42.247372156165675
aF42.31888972709911
aF42.331519220685315
aF42.331519220685315
aF43.20471007490098
aF43.237819477896025
aF43.21058366899972
aF43.21058366899972
aF43.13228255991242
aF42.807805114382326
aF42.6122526645616
aF42.6122526645616
aF42.67063344953265
aF42.64366801618969
aF42.61732140790145
aF42.61732140790145
aF42.80275892830975
aF42.839077060990704
aF42.366671033409325
aF42.366671033409325
aF42.311573914348486
aF42.46749963667069
aF42.342703515666365
aF42.342703515666365
aF42.4368441591443
aF41.90634030098399
aF41.15470764004405
aF41.15470764004405
aF40.904910095511454
aF40.93235893290906
aF40.961766722247376
aF40.961766722247376
aF41.74676610791248
aF42.05567801986953
aF42.032304238637394
aF42.032304238637394
aF41.841344626065585
aF41.62681525227308
aF41.00257232784304
aF41.00257232784304
aF40.971215541275896
aF40.97002822662714
aF40.74892456882298
aF40.74892456882298
aF40.453040507829876
aF40.3297761551755
aF40.01469151585921
aF40.01469151585921
aF39.67084573054326
aF39.85702903719587
aF39.481731584446116
aF39.481731584446116
aF39.52652516230398
aF39.8389611092662
aF39.74219901832937
aF39.74219901832937
aF40.214014872771656
aF40.59078938154797
aF40.185940203497324
aF40.185940203497324
aF40.245021346299005
aF39.839639800255
aF40.07007411827123
aF40.07007411827123
aF39.94765709797244
aF40.25387573537174
aF40.708752310141335
aF40.708752310141335
aF40.450059028271205
aF41.01060385932217
aF40.852951215877596
aF40.852951215877596
aF40.86035341801772
aF41.11068597063983
aF41.143117328608255
aF41.143117328608255
aF41.329594432761645
aF41.07191970057676
aF40.264650320469535
aF40.264650320469535
aF39.95878308586393
aF39.734227536100725
aF39.812024746967154
aF39.812024746967154
aF40.114387225782224
aF40.13592019430662
aF40.20984992822032
aF40.20984992822032
aF40.047022836734534
aF40.42962937797755
aF40.57868152775851
aF40.57868152775851
aF40.829153498335295
aF40.905790438595
aF40.80639789757239
aF40.80639789757239
aF40.88928607618764
aF40.35770690755283
aF40.64379072637511
aF40.64379072637511
aF40.65083313260627
aF40.49551178352207
aF40.89333555211809
aF40.89333555211809
aF40.5580051559068
aF40.62177571339509
aF40.59371692165704
aF40.59371692165704
aF40.39555700062353
aF40.93680223641986
aF40.60874524569415
aF40.60874524569415
aF40.30522281700134
aF40.18513370269066
aF39.72792908785172
aF39.72792908785172
aF39.71755444207731
aF39.36278952537218
aF39.61917870538286
aF39.61917870538286
aF39.64479432153577
aF39.624812080587525
aF40.36533299035046
aF40.36533299035046
aF39.94671133014268
aF39.496683874844166
aF40.11811327437162
aF40.11811327437162
aF40.10815152010093
aF40.13829699603843
aF40.768798985291745
aF40.768798985291745
aF40.207834085847004
aF40.310849651295804
aF40.256961196850014
aF40.256961196850014
aF40.5812083686064
aF40.958561495316516
aF40.935746622756255
aF40.935746622756255
aF40.79095610070172
a.