(lp0
F35.34937234237689
aF35.34937234237689
aF35.05053202052538
aF34.257583558242985
aF34.69256016019501
aF34.69256016019501
aF34.63476424824125
aF35.16839720700071
aF35.88968116140331
aF35.88968116140331
aF35.520508765623696
aF35.029624390805814
aF34.837481919397895
aF34.837481919397895
aF34.886893483284844
aF35.01584811397012
aF35.20589376872412
aF35.20589376872412
aF35.0689628207096
aF34.6011223936224
aF34.4147461978056
aF34.4147461978056
aF34.50735527911948
aF34.579890092771045
aF35.00119452481675
aF35.00119452481675
aF35.17233659737081
aF35.060799242953486
aF35.3545138616079
aF35.3545138616079
aF35.36535901364586
aF34.87987372139286
aF34.75414487420889
aF34.75414487420889
aF34.45781926636899
aF34.70034249876001
aF34.727565192217085
aF34.727565192217085
aF34.533899431731385
aF34.20979120738864
aF33.48435677204357
aF33.48435677204357
aF33.470646538235556
aF33.59539421848347
aF33.39775127218991
aF33.39775127218991
aF33.724379019255124
aF33.997242535241
aF34.48048268982668
aF34.48048268982668
aF34.78639477897573
aF34.92984563680374
aF34.641886535441095
aF34.641886535441095
aF34.57062588134795
aF34.85112029673508
aF34.82306350614668
aF34.82306350614668
aF35.28183818154533
aF35.53378192935738
aF35.49896496620535
aF35.49896496620535
aF35.830552482636065
aF35.79677781250447
aF35.55216650175837
aF35.55216650175837
aF35.29882374821876
aF35.46548202180625
aF35.818495216987756
aF35.818495216987756
aF36.26706225609541
aF36.64507235802653
aF36.11172780089074
aF36.11172780089074
aF36.03943085249648
aF36.025791677846925
aF35.907181504453256
aF35.907181504453256
aF36.015299618920636
aF35.72112169510149
aF35.86881343651822
aF35.86881343651822
aF36.37806714946865
aF36.78254763535113
aF37.18945307371265
aF37.18945307371265
aF37.20091997875355
aF36.960099434326644
aF36.798740995680646
aF36.798740995680646
aF36.786264393749946
aF36.620896874470795
aF36.755377343619735
aF36.755377343619735
aF36.74205377527228
aF37.00798979401272
aF36.76262339000884
aF36.76262339000884
aF37.02841332753386
aF36.91414434514736
aF36.79311618275217
aF36.79311618275217
aF37.036530477945014
aF36.76433838855852
aF36.77843719331767
aF36.77843719331767
aF37.13321602584235
aF36.87345733001924
aF37.37340447838125
aF37.37340447838125
aF37.611627477209424
aF37.22616982347986
aF38.00013813194467
aF38.00013813194467
aF37.86518475852026
aF37.96184511546182
aF37.84444995739963
aF37.84444995739963
aF37.09150556604908
aF37.10082302774344
aF36.97689840461204
aF36.97689840461204
aF37.347870130976844
aF37.869604349580285
aF37.62239466166561
aF37.62239466166561
aF37.604447641494154
aF37.21325755810606
aF37.35273492852465
aF37.35273492852465
aF37.469652433878075
aF37.614355260720444
aF38.092630020964194
aF38.092630020964194
aF38.07944415800751
aF37.86418536299342
aF38.08227947176515
aF38.08227947176515
aF38.08227947176515
aF37.960708381949026
aF38.479794439135524
aF38.479794439135524
aF38.09815909676608
aF38.228337156077686
aF38.345822453161375
aF38.345822453161375
aF37.98947961638113
aF38.48643670888323
aF38.62676978146115
aF38.62676978146115
aF38.627049462718645
aF39.09321292596709
aF39.10053460811789
aF39.10053460811789
aF38.71400009958849
aF39.479318347059106
aF39.479318347059106
aF39.479318347059106
aF39.339418447023334
aF39.590093309832575
aF38.83446722599091
aF38.83446722599091
aF39.09321292596709
aF39.47521349491032
aF39.59500170673377
aF39.59500170673377
aF39.973016411269555
aF39.84244176773839
aF39.4627649114089
aF39.4627649114089
aF38.99395548611509
aF39.118391264931255
aF38.88120585765458
aF38.88120585765458
aF39.25399157400668
aF39.853825319260444
aF39.849083589094306
aF39.849083589094306
aF40.60510931328409
aF40.73032320661874
aF41.130473135043076
aF41.130473135043076
aF41.013589235192825
aF41.02083002687476
aF40.66623808421274
aF40.66623808421274
aF40.641134115899895
aF40.893863909745065
aF40.140719272952744
aF40.140719272952744
aF40.88660063306957
aF40.88012887116964
aF40.738808434897955
aF40.738808434897955
aF41.75112273939469
aF41.51349907522552
aF41.52845468866046
aF41.52845468866046
aF41.783701194926174
aF41.396915221351335
aF41.396915221351335
aF41.396915221351335
aF41.13454189740509
aF41.002265681491615
aF41.275030876161985
aF41.275030876161985
aF41.26862002809686
aF41.28222581170679
aF41.524727314163364
aF41.524727314163364
aF40.77921750203313
aF40.52497301047837
aF40.64179941113582
aF40.64179941113582
aF40.76544533306517
aF40.866168173342054
aF40.998094467913994
aF40.998094467913994
aF41.01968878677729
aF40.64502961761976
aF40.79422087785536
aF40.79422087785536
aF40.67301099306747
aF40.663584441234086
aF40.559469383124636
aF40.559469383124636
aF40.91436906153051
aF40.73050152996907
aF40.47248112626189
aF40.47248112626189
aF40.48915538883915
aF40.08327817747851
aF39.993006285572136
aF39.993006285572136
aF39.508304543851125
aF39.33145533674352
aF38.995983992946314
aF38.995983992946314
aF39.129938660945726
aF39.77099669023112
aF39.62435614125957
aF39.62435614125957
aF39.495864844863824
aF39.495864844863824
aF39.01412160449486
aF39.01412160449486
aF38.809288690619866
aF38.94221950481171
aF38.69530382470123
aF38.69530382470123
aF38.52159087923534
aF38.671571968509696
aF38.44937570608267
aF38.44937570608267
aF38.040050080885145
aF37.652954666495795
aF36.81688349325958
aF36.81688349325958
aF36.36816845481516
aF36.65774187074948
aF36.00840152615428
aF36.00840152615428
aF35.98484992087816
aF35.770672563218604
aF35.46852973499888
aF35.46852973499888
aF35.921164765706024
aF36.197163136641315
aF36.357031510209616
aF36.357031510209616
aF36.541922962387495
aF36.604036235775965
aF36.32701611210829
aF36.32701611210829
aF36.28433012065522
aF35.57767552965975
aF35.02114316737819
aF35.02114316737819
aF35.57767552965975
aF35.14059373609103
aF34.890299623426856
aF34.890299623426856
aF34.75927083785975
aF33.80056433573355
aF33.425441385805776
aF33.425441385805776
aF34.044596427310424
aF34.044596427310424
aF33.72395008848033
aF33.72395008848033
aF34.225571879923535
aF33.63689090399854
aF33.75292232718524
aF33.75292232718524
aF34.250333241421714
aF34.31444239720719
aF34.248756107658494
aF34.248756107658494
aF34.34841834456774
aF34.19147564577957
aF33.602199155500784
aF33.602199155500784
aF33.56811158278605
aF33.095699378964824
aF32.60766795963221
aF32.60766795963221
aF32.93967356739533
aF32.7082010513514
aF33.08182807271709
aF33.08182807271709
aF33.56087235636631
aF33.46322389602689
aF33.66256940730405
aF33.66256940730405
aF33.70889785979178
aF33.58532052672436
aF33.714984729530876
aF33.714984729530876
aF33.91237343899163
aF34.02317648436044
aF34.03380923285604
aF34.03380923285604
aF33.65037560444627
aF33.59625354043401
aF33.25829974537371
aF33.25829974537371
aF33.78730215790209
aF34.12096294515569
aF33.975528661840755
aF33.975528661840755
aF34.08913809320353
aF33.26430760073401
aF32.9098240432046
aF32.9098240432046
aF32.69102887858724
aF32.79789109312137
aF33.35055870034264
aF33.35055870034264
aF33.32172384906635
aF33.236373059355095
aF33.04981887005964
aF33.04981887005964
aF33.10679223940025
aF33.47903378422083
aF33.71498291920356
aF33.71498291920356
aF33.7080957304538
aF33.42753940428461
aF33.04981887005964
aF33.04981887005964
aF32.89538267252526
aF33.22467315490101
aF32.986362298020225
aF32.986362298020225
aF33.366745746022154
aF33.603323490532524
aF33.71386411832768
aF33.71386411832768
aF33.594322306171584
aF33.70585220189886
aF33.71098004777153
aF33.71098004777153
aF32.876169626294285
aF33.12978296836926
aF32.862697837817386
aF32.862697837817386
aF32.736586291659215
aF32.96540082218306
aF33.0805218044027
aF33.0805218044027
aF32.73790628327505
aF33.10842561463301
aF33.35978666315085
aF33.35978666315085
aF33.496450663185946
aF33.97918423001794
aF33.728754887336116
aF33.728754887336116
aF33.72539250489718
aF33.56795157656891
aF33.45337860424657
aF33.45337860424657
aF33.84095996405927
aF33.94849758503681
aF33.33679344020657
aF33.33679344020657
aF33.727955039875674
aF33.887682127876495
aF34.14279705619199
aF34.14279705619199
aF34.886274149347585
aF34.964047522285306
aF34.55281425088628
aF34.55281425088628
aF34.671074024659774
aF34.79327727528247
aF34.55109370442381
aF34.55109370442381
aF34.43963561039173
aF34.29571111350879
aF34.284844487374265
aF34.284844487374265
aF34.172517998065715
aF34.68758094022088
aF33.934019806019336
aF33.934019806019336
aF33.79880730144187
aF34.53655572926497
aF34.1619284220845
aF34.1619284220845
aF34.029366769517985
aF34.28358583655596
aF33.81238447300042
aF33.81238447300042
aF34.17378252563469
aF34.63772822800126
aF34.25222570608095
aF34.25222570608095
aF34.52091898626469
aF34.13900167765418
aF34.8145337152819
aF34.8145337152819
aF34.9969271809594
aF35.015747015628556
aF35.441722907559814
aF35.441722907559814
aF35.116460121777294
aF35.22010520351799
aF35.121380276678515
aF35.121380276678515
aF35.44720918029902
aF35.61544896639835
aF35.5845044648343
aF35.5845044648343
aF35.805375327508436
aF35.45467093919009
aF35.35492473652009
aF35.35492473652009
aF36.0176483976085
aF36.19711255102056
aF36.16368022724077
aF36.16368022724077
aF36.492925925145066
aF36.76791256695503
aF36.400819404517705
aF36.400819404517705
aF36.6415345036374
aF37.29404707544657
aF37.03016381582132
aF37.03016381582132
aF37.29790432440122
aF37.728027416423124
aF37.22979639022771
aF37.22979639022771
aF37.73370535120093
aF38.26560904960876
aF37.83646096452881
aF37.83646096452881
aF37.702208727987674
aF37.27801648016311
aF36.69935990692651
aF36.69935990692651
aF37.73561398069468
aF38.09395508558411
aF38.15740810077055
aF38.15740810077055
aF38.15740810077055
aF37.791954322625834
aF37.15981769036616
aF37.15981769036616
aF37.50509080028337
aF37.908655503847335
aF37.426392603098286
aF37.426392603098286
aF37.95658241250785
aF37.845166029453154
aF37.97170609634478
aF37.97170609634478
aF38.179902514997174
aF38.589705949559104
aF38.2744062760123
aF38.2744062760123
aF38.424510317817486
aF38.50607450049278
aF38.09608278337157
aF38.09608278337157
aF38.12994332706253
aF37.99004675363996
aF38.1412715020996
aF38.1412715020996
aF38.390626589845304
aF38.77662580710672
aF38.6684089355817
aF38.6684089355817
aF38.38739111837375
aF38.64647840319672
aF38.27144325917988
aF38.27144325917988
aF38.64005003615905
aF39.116873095151504
aF38.76102413749539
aF38.76102413749539
aF39.05525557823492
aF39.516551738836284
aF38.75767943058188
aF38.75767943058188
aF39.01264631200535
aF38.931172991174435
aF38.46398033489417
aF38.46398033489417
aF39.055069605802295
aF39.03584715721243
aF38.737195465082394
aF38.737195465082394
aF38.82338690910094
aF38.57221058855067
aF38.390907991427476
aF38.390907991427476
aF38.727945462748536
aF38.8418361103318
aF38.604349189789325
aF38.604349189789325
aF38.6313360751751
aF38.3949380081338
aF37.9136399175399
aF37.9136399175399
aF38.266363495834206
aF38.14381899776653
aF38.375149506019845
aF38.375149506019845
aF38.76306798297995
aF38.62336604047963
aF38.51892734321498
aF38.51892734321498
aF38.384389120122776
aF38.11898806338598
aF38.150567758717564
aF38.150567758717564
aF38.39001449453523
aF38.501398234552795
aF38.521216949538825
aF38.521216949538825
aF38.86194138590158
aF38.76993879666146
aF38.76060527758016
aF38.76060527758016
aF39.01979853528687
aF39.01979853528687
aF39.41826739834591
aF39.41826739834591
aF39.406116796959644
aF39.189373646894865
aF38.788460625995135
aF38.788460625995135
aF38.66687151975189
aF38.79611671127666
aF39.02625505969507
aF39.02625505969507
aF39.15316353557845
aF39.24587271791296
aF39.24137637898533
aF39.24137637898533
aF39.43260140684276
aF39.98985619670084
aF40.12614082782414
aF40.12614082782414
aF40.25056713012719
aF39.67071187739609
aF39.32976382163545
aF39.32976382163545
aF39.20902518872409
aF39.28167573854411
aF39.821654412596295
aF39.821654412596295
aF40.17733821272105
aF40.086244304273194
aF40.26447296566944
aF40.26447296566944
aF40.10164392768861
aF40.49000105639509
aF40.56514821863714
aF40.56514821863714
aF40.69194754157833
aF40.83960145342998
aF40.75846615706438
aF40.75846615706438
aF41.21917349573952
aF41.26211943174999
aF41.52888825348341
aF41.52888825348341
aF41.39043477447794
aF41.26211943174999
aF40.56514821863714
aF40.56514821863714
aF40.536917732096384
aF40.611581317517974
aF40.328707679343474
aF40.328707679343474
aF40.723786142898106
aF40.73823761414146
aF40.61450886171252
aF40.61450886171252
aF41.450839788122806
aF41.46086904672133
aF41.73102581563266
aF41.73102581563266
aF41.79473125343522
aF41.05377095194788
aF40.78632481595011
aF40.78632481595011
aF40.22265302545632
aF39.905775863471504
aF39.95702953154019
aF39.95702953154019
aF40.51959884580547
aF41.13314117271346
aF41.49233533559617
aF41.49233533559617
aF41.4711166430927
aF41.09246968062549
aF40.35989220051882
aF40.35989220051882
aF40.28811489941466
aF40.7721553556315
aF40.799561860967025
aF40.799561860967025
aF41.19925560139861
aF41.30528374002229
aF40.38766913749016
aF40.38766913749016
aF40.05187676041224
aF40.23428398047957
aF40.25199856742364
aF40.25199856742364
aF40.49075777067836
aF40.604622293065354
aF39.698878782183506
aF39.698878782183506
aF39.53203587410548
aF39.02869943878238
aF39.07143022921288
aF39.07143022921288
aF39.5139537260257
aF39.380623358369405
aF39.57608469129036
aF39.57608469129036
aF39.150818907064384
aF38.855039715950944
aF38.4689879917496
aF38.4689879917496
aF38.40042355621713
aF38.401548863009744
aF38.25220198931363
aF38.25220198931363
aF38.32948332540092
aF38.25502290345347
aF38.49971622511084
aF38.49971622511084
aF38.626023954874
aF38.553119427332014
aF38.25168501190503
aF38.25168501190503
aF37.601863603874406
aF37.70769793289478
aF37.60243821050704
aF37.60243821050704
aF37.99147018266896
aF38.16349235116592
aF37.85377396145594
aF37.85377396145594
aF37.248068125764085
aF37.06116276044574
aF37.178997189693675
aF37.178997189693675
aF37.11968935606311
aF37.35822973725552
aF36.988092929410236
aF36.988092929410236
aF36.441988895880804
aF36.1158651134183
aF36.11153004982013
aF36.11153004982013
aF36.22201910397528
aF36.52783145360706
aF36.85455935053186
aF36.85455935053186
aF37.11037827591158
aF36.964579355825556
aF36.40700106521409
aF36.40700106521409
aF36.157705107927896
aF35.66418657563302
aF35.59719823891955
aF35.59719823891955
aF36.304363869065384
aF36.5432040428689
aF36.3358845879533
aF36.3358845879533
aF36.21978131620551
aF36.37212892717874
aF36.19457643461586
aF36.19457643461586
aF36.45043422613011
aF36.58381790384753
aF35.82763778015863
aF35.82763778015863
aF36.180250110341625
aF36.651802333006934
aF36.74714992137145
aF36.74714992137145
aF37.01319443792983
aF37.26589524273082
aF36.66785701784671
aF36.66785701784671
aF36.565067351101995
aF36.57053197034123
aF35.782947216843915
aF35.782947216843915
aF35.71255516873145
aF36.13868448908403
aF36.4158500620566
aF36.4158500620566
aF36.72475682250156
aF37.18829108927466
aF37.071944939030374
aF37.071944939030374
aF37.04644334944651
aF37.67876012880134
aF37.69781808382615
aF37.69781808382615
aF37.55271685203016
aF37.64320151258641
aF36.80539312234859
aF36.80539312234859
aF36.700045102790746
aF37.13607756395306
aF36.82578150689745
aF36.82578150689745
aF37.07412799779484
aF37.182480622389555
aF37.02996767294531
aF37.02996767294531
aF37.31238058764393
aF37.42177713974679
aF37.29558871368034
aF37.29558871368034
aF37.04483861969674
aF36.905072483332155
aF36.37376165740045
aF36.37376165740045
aF36.326223068492475
aF36.03068760402374
aF35.61691245918152
aF35.61691245918152
aF36.12872189682936
aF36.12035004675342
aF36.23513299659945
aF36.23513299659945
aF36.72083438232818
aF36.72598166818945
aF36.38979141112673
aF36.38979141112673
aF36.746412452442215
aF36.72436293535686
aF36.24094714545965
aF36.24094714545965
aF36.66711795413569
aF36.52783145360706
aF36.02904102075158
aF36.02904102075158
aF36.05885251538882
aF36.13738906827491
aF35.860930657977214
aF35.860930657977214
aF36.05286171568944
aF36.43116938198749
aF36.31447828356911
aF36.31447828356911
aF36.07562450732835
aF36.539803318607234
aF36.78181087613992
aF36.78181087613992
a.