(lp0
F35.96648457516125
aF36.40492218608632
aF36.174281102480116
aF36.174281102480116
aF36.125484898886654
aF35.25320658066086
aF35.0433395173926
aF35.0433395173926
aF34.91056863951624
aF35.4945029717411
aF36.0319868609606
aF36.0319868609606
aF36.23865999889655
aF36.248642889467256
aF36.09517549944781
aF36.09517549944781
aF35.67942491555445
aF35.38204918170901
aF35.361589565537955
aF35.361589565537955
aF34.90829748639194
aF35.0355323263487
aF34.98509727369641
aF34.98509727369641
aF34.83396723655662
aF34.834123179654064
aF34.738964496612084
aF34.738964496612084
aF34.56630185068707
aF34.54004766322891
aF35.168909179153715
aF35.168909179153715
aF35.391152727853466
aF35.565630354318195
aF35.84707713960965
aF35.84707713960965
aF35.38113145294572
aF35.42749872649246
aF35.08040603663692
aF35.08040603663692
aF34.50208751610183
aF34.38900460460164
aF34.022909187918884
aF34.022909187918884
aF34.56177242679041
aF34.522062904010205
aF34.193790840315586
aF34.193790840315586
aF34.16235006713348
aF33.96784439915197
aF33.87854390768127
aF33.87854390768127
aF33.96668001972669
aF33.69479534584588
aF33.56859523330549
aF33.56859523330549
aF34.42003087434154
aF35.0907706187423
aF35.982298843710986
aF35.982298843710986
aF36.40433203102345
aF35.69072370783566
aF35.15780204907404
aF35.15780204907404
aF34.84786620866298
aF35.131373142908174
aF35.52664259375455
aF35.52664259375455
aF35.76463178502961
aF35.797834925475065
aF35.66029980835656
aF35.66029980835656
aF35.75451375569594
aF35.622268946852266
aF36.12383756780279
aF36.12383756780279
aF35.85300188464873
aF35.73744589450259
aF36.07562450732835
aF36.07562450732835
aF35.80773787600768
aF35.88386452708846
aF36.5348286046599
aF36.5348286046599
aF36.387119437206074
aF36.118856257414215
aF36.39913925997684
aF36.39913925997684
aF36.730393765543475
aF36.839465797353455
aF37.44543556338009
aF37.44543556338009
aF37.43822385568992
aF37.007943615188886
aF37.28202600303027
aF37.28202600303027
aF36.85783167604105
aF37.00580118426113
aF36.90844120559093
aF36.90844120559093
aF37.018446164653
aF37.178704973622
aF37.18117396298327
aF37.18117396298327
aF37.52058842374493
aF37.00798979401272
aF37.15560607095516
aF37.15560607095516
aF37.054021216073835
aF37.26937219105824
aF37.983793316196056
aF37.983793316196056
aF38.16872812448202
aF37.774375473100974
aF37.210356027631946
aF37.210356027631946
aF37.184516030491444
aF37.13612522699427
aF37.52883982165416
aF37.52883982165416
aF37.622537424602626
aF37.60315564488072
aF37.33234658526705
aF37.33234658526705
aF37.061744103273966
aF37.5856330207476
aF37.431587987913026
aF37.431587987913026
aF37.30456397230857
aF37.98459995819852
aF37.71695864894945
aF37.71695864894945
aF37.46950908843249
aF37.95862455008578
aF37.839791932773956
aF37.839791932773956
aF38.34840410833611
aF39.27113657597333
aF39.17379925219869
aF39.17379925219869
aF39.42004801553234
aF38.77741280875537
aF38.6532751987946
aF38.6532751987946
aF38.53041995253555
aF38.408859375352776
aF38.68120626057876
aF38.68120626057876
aF38.78437550358552
aF40.00614576810356
aF40.242875315661465
aF40.242875315661465
aF40.34900841989491
aF40.35048174375524
aF39.6305817243767
aF39.6305817243767
aF39.7587297558269
aF39.614681597191655
aF39.61726992325285
aF39.61726992325285
aF39.49901106356968
aF39.339418447023334
aF39.46632205022245
aF39.46632205022245
aF39.73006145481183
aF40.106804736014716
aF40.379468357616474
aF40.379468357616474
aF40.63382566392116
aF40.36609204169695
aF40.51937591102249
aF40.51937591102249
aF40.29235961276111
aF40.209315618398676
aF40.380045761528365
aF40.380045761528365
aF40.01357039092722
aF40.3898089859543
aF40.469280884548716
aF40.469280884548716
aF40.30669774134939
aF40.62571814269103
aF40.49911385025912
aF40.49911385025912
aF40.738808434897955
aF41.24453680678509
aF41.114189605464226
aF41.114189605464226
aF40.98751268726931
aF40.73549426684378
aF40.88171443561672
aF40.88171443561672
aF41.164986971256894
aF41.304589234089654
aF41.038115857395304
aF41.038115857395304
aF40.56945421415446
aF40.69000208320528
aF40.559469383124636
aF40.559469383124636
aF40.919870368998296
aF41.01968878677729
aF40.76561901111493
aF40.76561901111493
aF41.0081019886429
aF41.033335462043844
aF41.28758940726014
aF41.28758940726014
aF41.280526997359026
aF41.04859984004479
aF40.8129725757479
aF40.8129725757479
aF40.64910642948532
aF40.29767472064145
aF40.78663308581088
aF40.78663308581088
aF41.00165089330626
aF40.722503184664376
aF41.12679873535929
aF41.12679873535929
aF40.92171690022915
aF41.0867300325254
aF41.19256773641029
aF41.19256773641029
aF41.02587520728153
aF40.77859935111875
aF40.16282168988815
aF40.16282168988815
aF40.39889905581432
aF40.045901092820195
aF39.78507014748906
aF39.78507014748906
aF40.023647184937744
aF39.83159741139878
aF40.015188766657715
aF40.015188766657715
aF40.159593732382305
aF39.76189815541852
aF39.54414315435979
aF39.54414315435979
aF39.24321323689295
aF39.250366986739756
aF39.634259318407224
aF39.634259318407224
aF39.19653566583563
aF39.328159142813945
aF39.03127971125771
aF39.03127971125771
aF38.30599646575422
aF38.30599646575422
aF38.10075753327452
aF38.10075753327452
aF37.778949475038345
aF37.792047994274704
aF37.80504833600269
aF37.80504833600269
aF37.55310042543092
aF37.05290440180601
aF36.93554517088265
aF36.93554517088265
aF36.395924635570466
aF35.89349547728843
aF36.16925442721086
aF36.16925442721086
aF35.99220021841538
aF35.777614785317404
aF35.6189345165426
aF35.6189345165426
aF35.389883408344964
aF35.259333247449355
aF35.25427999282498
aF35.25427999282498
aF34.900203006886294
aF34.790328301977475
aF34.81189687538586
aF34.81189687538586
aF34.55359500449085
aF34.790328301977475
aF34.63476601049244
aF34.63476601049244
aF34.47489745724416
aF34.728185599020286
aF34.77092305136218
aF34.77092305136218
aF34.433676838030784
aF33.81494041562841
aF33.74220106650572
aF33.74220106650572
aF33.42915710755919
aF33.57454392839909
aF33.85388201002121
aF33.85388201002121
aF33.75980037105892
aF34.053001829409254
aF34.007937234149836
aF34.007937234149836
aF34.14469369348443
aF33.75980037105892
aF33.52497138037089
aF33.52497138037089
aF33.8902305907202
aF33.48435677204357
aF33.257813417606286
aF33.257813417606286
aF33.1315754823901
aF32.79657351576533
aF33.30502928366732
aF33.30502928366732
aF33.49902706726159
aF33.65342265573165
aF33.51465980544932
aF33.51465980544932
aF33.3711154691636
aF33.412676971800316
aF33.70409023015141
aF33.70409023015141
aF33.74140153778996
aF33.367393284017744
aF33.74140153778996
aF33.74140153778996
aF33.52932048269469
aF33.00403732109433
aF33.52932048269469
aF33.52932048269469
aF33.06108958475583
aF32.701266072346115
aF33.11592593875717
aF33.11592593875717
aF32.9098240432046
aF33.01205316694003
aF33.35849127927832
aF33.35849127927832
aF33.44934442673167
aF33.75228218557043
aF33.66016327644409
aF33.66016327644409
aF33.659200413273894
aF33.93958974344158
aF33.90727605014335
aF33.90727605014335
aF33.8594651302446
aF33.85643301708887
aF33.96662611230508
aF33.96662611230508
aF33.89150565072961
aF34.61620629533586
aF34.13172259503888
aF34.13172259503888
aF33.984269037191126
aF33.843034026937325
aF33.6827744830351
aF33.6827744830351
aF34.41014538575433
aF34.1636667810949
aF33.62083573772557
aF33.62083573772557
aF33.55266382867387
aF33.80056433573355
aF33.827713623364716
aF33.827713623364716
aF34.58655427081636
aF34.36334674634261
aF33.82787240090448
aF33.82787240090448
aF34.27948911555476
aF34.16572304019593
aF34.39492142914688
aF34.39492142914688
aF34.69894061051702
aF33.94308914611706
aF34.05252685133568
aF34.05252685133568
aF33.80184097242338
aF33.753401521295785
aF34.010476686075165
aF34.010476686075165
aF33.53318486670611
aF34.09404896466079
aF33.64684394444559
aF33.64684394444559
aF34.03111010646178
aF34.02365187217195
aF33.589981620036276
aF33.589981620036276
aF34.05871000990881
aF33.948657595537746
aF34.28815200858837
aF34.28815200858837
aF34.1005414008066
aF33.94038460346685
aF33.70585220189886
aF33.70585220189886
aF33.98029609142536
aF33.84798060469228
aF34.10560811483666
aF34.10560811483666
aF34.43210810216788
aF33.714984729530876
aF34.34904559945953
aF34.34904559945953
aF34.39884648717799
aF34.19526520016149
aF35.064909119552844
aF35.064909119552844
aF35.32736827473496
aF35.551660048815755
aF35.92367091258823
aF35.92367091258823
aF35.41255873847935
aF35.270356489196416
aF34.89819177353606
aF34.89819177353606
aF34.86274006057542
aF35.21933922532832
aF35.337966135389536
aF35.337966135389536
aF35.59906882450544
aF35.73759618734869
aF35.75980184137455
aF35.75980184137455
aF35.63924468502033
aF35.4633531136369
aF35.34835534485215
aF35.34835534485215
aF35.593609388440434
aF35.87302810619439
aF36.04227762457844
aF36.04227762457844
aF36.12862222324566
aF36.109735029035974
aF35.86279089122614
aF35.86279089122614
aF35.867458919959745
aF36.32548041449349
aF36.341828732536285
aF36.341828732536285
aF36.71421514549916
aF37.334950911583
aF36.757286958251555
aF36.757286958251555
aF37.103246204425965
aF37.12725227279989
aF36.64060167909705
aF36.64060167909705
aF37.11124995263397
aF37.2511109052049
aF37.237772938220104
aF37.237772938220104
aF37.42206419576391
aF37.44399137691353
aF37.31238058764393
aF37.31238058764393
aF36.89527051436437
aF37.41239604635992
aF37.540490835209354
aF37.540490835209354
aF37.53588777548428
aF38.31840034092629
aF37.83622383357482
aF37.83622383357482
aF37.80938294228778
aF37.53301281247283
aF37.18625752913887
aF37.18625752913887
aF37.5703994137589
aF37.96075500959429
aF38.38565482173972
aF38.38565482173972
aF38.6313360751751
aF38.50153773816216
aF37.8579111355457
aF37.8579111355457
aF37.46604908426261
aF37.8365077452898
aF38.21383093854894
aF38.21383093854894
aF38.91355196287262
aF39.58700058395906
aF38.995617742574616
aF38.995617742574616
aF38.961815554322705
aF38.98827948884126
aF38.866065467472716
aF38.866065467472716
aF39.01721437491566
aF38.96694249516987
aF39.031049839358666
aF39.031049839358666
aF38.977056552541264
aF39.49536414647294
aF39.77479940827798
aF39.77479940827798
aF39.8894896773417
aF40.19355332034759
aF39.74709170276644
aF39.74709170276644
aF39.84086080211025
aF39.83299793650203
aF39.61059231364131
aF39.61059231364131
aF39.33383574946162
aF38.91410720108856
aF38.13631683984932
aF38.13631683984932
aF37.64736020584644
aF37.79624198519113
aF37.99957275150439
aF37.99957275150439
aF38.463418598877816
aF38.664079075314696
aF38.81040214237834
aF38.81040214237834
aF38.639023293734404
aF38.68120626057876
aF38.825565811033265
aF38.825565811033265
aF38.91073016373504
aF38.86198850278541
aF38.583081458129904
aF38.583081458129904
aF38.685534203893646
aF38.54723601371278
aF38.742582140307036
aF38.742582140307036
aF38.96994347109866
aF38.969251199663816
aF38.906011545454
aF38.906011545454
aF38.82375635634949
aF38.346385911843115
aF38.51892734321498
aF38.51892734321498
aF38.742582140307036
aF38.63762688025107
aF39.145667714081085
aF39.145667714081085
aF38.863098874144896
aF38.81346239748845
aF38.84350487653953
aF38.84350487653953
aF38.70855898974411
aF38.57034335754285
aF38.490318765526936
aF38.490318765526936
aF38.545833108132456
aF38.78994444490817
aF39.22835104093244
aF39.22835104093244
aF39.58777147542692
aF39.710801476503214
aF39.59404597363725
aF39.59404597363725
aF39.309528280963576
aF39.58222688968971
aF39.11728814022404
aF39.11728814022404
aF39.25582628681936
aF39.62072384261171
aF39.41739718920917
aF39.41739718920917
aF39.69534094542378
aF39.84930721049301
aF39.78325984219839
aF39.78325984219839
aF39.79561123827758
aF40.165104203812604
aF40.45700088857845
aF40.45700088857845
aF40.10541377254681
aF40.579259105252895
aF40.255128142845045
aF40.255128142845045
aF39.87491122149208
aF40.21889416980765
aF40.019822358933894
aF40.019822358933894
aF40.187328379785185
aF40.857313523522016
aF40.66415781088734
aF40.66415781088734
aF40.46621010369331
aF40.50395729605473
aF40.278284595560145
aF40.278284595560145
aF40.41814222231305
aF40.320761326459504
aF40.269481043535
aF40.269481043535
aF39.969461609185146
aF39.70064681364619
aF40.257543390086376
aF40.257543390086376
aF40.601609853012604
aF40.863043573357636
aF41.008103477011105
aF41.008103477011105
aF40.690309582814834
aF40.92730371589515
aF40.579078613169
aF40.579078613169
aF41.059033577049156
aF41.2168145987055
aF40.62283948581912
aF40.62283948581912
aF40.83708761174547
aF40.83113567640508
aF40.1948531618555
aF40.1948531618555
aF40.243993085828194
aF40.28369246861874
aF40.19041895017549
aF40.19041895017549
aF40.536473557483546
aF40.86828296777802
aF40.501422621619106
aF40.501422621619106
aF40.20716312794121
aF40.22905001169863
aF40.05834977528093
aF40.05834977528093
aF40.15475130958197
aF39.91844713757037
aF40.170616958130914
aF40.170616958130914
aF39.91844713757037
aF40.638519385092025
aF40.93324017674618
aF40.93324017674618
aF40.534342957353765
aF41.10648269947059
aF40.744287008464454
aF40.744287008464454
aF40.96541718661532
aF40.9441460492599
aF40.22108548725951
aF40.22108548725951
aF40.07542023036845
aF39.902979872866325
aF39.60154785830268
aF39.60154785830268
aF39.68667875626688
aF39.43607149998035
aF39.277738257901895
aF39.277738257901895
aF39.50789515143619
aF39.43059536179916
aF39.424020824476415
aF39.424020824476415
aF39.20301290338697
aF39.28735906155121
aF38.91355196287262
aF38.91355196287262
aF38.91410720108856
aF38.91410720108856
aF38.23036158441351
aF38.23036158441351
aF38.590824155288196
aF38.590824155288196
aF38.12682820923968
aF38.12682820923968
aF38.088000745395526
aF37.71657512371053
aF37.33422668841388
aF37.33422668841388
aF37.67761323468486
aF38.06076812562379
aF38.31685047434663
aF38.31685047434663
aF38.15627559376701
aF37.87331112158666
aF37.47513009952817
aF37.47513009952817
aF37.75578455784127
aF37.6330127991867
aF37.67188148071284
aF37.67188148071284
aF37.78294945516099
aF36.98882392971051
aF37.000644987515926
aF37.000644987515926
aF36.84342199281474
aF36.59577145356072
aF36.988092929410236
aF36.988092929410236
aF36.696710473424076
aF36.30674438034895
aF36.31254370156579
aF36.31254370156579
aF36.293057671629846
aF36.57392649975355
aF36.81116362705918
aF36.81116362705918
aF37.186982992729625
aF37.06669749892162
aF37.05693663451385
aF37.05693663451385
aF37.34247023173229
aF36.863641987545634
aF36.648558242979526
aF36.648558242979526
aF36.529752963337984
aF36.15815412012898
aF36.48878453010425
aF36.48878453010425
aF36.82773553304883
aF36.994369490821676
aF37.13030824056087
aF37.13030824056087
aF36.964434051742565
aF36.48182873877076
aF36.298265618539716
aF36.298265618539716
aF36.42598211238185
aF36.541578883577095
aF36.784160489137506
aF36.784160489137506
aF36.93242846687634
aF36.837706247301824
aF37.0042953060013
aF37.0042953060013
aF37.024717580476725
aF37.80952499918589
aF37.7999543366333
aF37.7999543366333
aF37.60401914502458
aF37.48290951699688
aF36.640308500765244
aF36.640308500765244
aF36.71436310230388
aF36.79883885417616
aF37.06713550005837
aF37.06713550005837
aF37.50983920399253
aF37.425237975195294
aF36.92029130649229
aF36.92029130649229
aF36.146802190425504
aF36.17129454177891
aF36.204719834315114
aF36.204719834315114
aF37.31064497587284
aF37.75835967816845
aF36.79972122750219
aF36.79972122750219
aF36.73730249394
aF36.392907627530086
aF36.739654953384495
aF36.739654953384495
aF37.32149572255579
aF37.06669914555213
aF36.697888023039724
aF36.697888023039724
aF36.45043422613011
aF36.17562413075965
aF35.96228085829999
aF35.96228085829999
aF35.90472690416263
aF35.64373821891792
aF35.78556196725853
aF35.78556196725853
aF35.87523478255055
aF36.06738925099532
aF35.849384161050274
aF35.849384161050274
aF35.97133936704852
aF36.56895475876276
aF36.437443047768525
aF36.437443047768525
aF37.11445031082907
aF37.24821068479331
aF36.848109898948685
aF36.848109898948685
aF36.85119067148645
aF36.56049006227556
aF36.356833414607216
aF36.356833414607216
aF36.47649807902857
aF36.71848404159001
aF36.877555525854746
a.