(lp0
F35.96648457516125
aF35.979637703489004
aF35.98547700545874
aF35.991141128369385
aF35.9951714414849
aF35.972912495660175
aF35.94502530631215
aF35.91797473264456
aF35.88775254985071
aF35.87595506250742
aF35.88063601646102
aF35.88517654179601
aF35.895781045509025
aF35.90636690082777
aF35.91203115878637
aF35.917525489006216
aF35.91038247180266
aF35.89453247309985
aF35.878544185873
aF35.863035547262946
aF35.83439340543681
aF35.810427573064175
aF35.78566766408314
aF35.76165055237154
aF35.733820052897094
aF35.7068291466998
aF35.67779320719717
aF35.64962834587962
aF35.617128551023846
aF35.58481612439
aF35.57233891603291
aF35.560236023926535
aF35.55516352504434
aF35.55547752992256
aF35.56422551821318
aF35.57271106685507
aF35.56696367843779
aF35.56277972987943
aF35.548308519082155
aF35.5342714446088
aF35.50330592675359
aF35.46987688708903
aF35.42646785611392
aF35.38436109606807
aF35.35968343598974
aF35.33455482003035
aF35.3003319006389
aF35.2671356688292
aF35.23399210077832
aF35.19600766972953
aF35.156483756868084
aF35.11814556139248
aF35.083601595142504
aF35.0419374076636
aF34.997737142432854
aF34.95486288515903
aF34.9388179248345
aF34.943376505651734
aF34.97454417579351
aF35.004776815831036
aF35.04676347228681
aF35.06608227935328
aF35.068833872444905
aF35.07150291774378
aF35.06479381647135
aF35.066791196264454
aF35.080586738189155
aF35.09396841385612
aF35.11408831499132
aF35.13460071330583
aF35.15037168615736
aF35.16566952982333
aF35.18333485659951
aF35.19650287930709
aF35.224322919961956
aF35.25130835939718
aF35.269359165154725
aF35.283401767035166
aF35.30716844924396
aF35.33022213098649
aF35.344547603337126
aF35.36072711104966
aF35.39595015585797
aF35.430116509322026
aF35.45882659715855
aF35.47862748696622
aF35.50624284015654
aF35.533029732751146
aF35.568950653734916
aF35.60706610804347
aF35.66221719170357
aF35.715713742853865
aF35.76738904623895
aF35.80460568330744
aF35.848928292899124
aF35.89192122420305
aF35.92089853775819
aF35.95344561715328
aF35.98209548480641
aF36.009885856429946
aF36.04014266567664
aF36.074299534915
aF36.10750576775704
aF36.139715813613826
aF36.18114199191776
aF36.20594742598061
aF36.234437185329845
aF36.2620722518986
aF36.28583072082386
aF36.315336964930886
aF36.36539065546884
aF36.41394273529066
aF36.4665862969664
aF36.505819972250436
aF36.52695605391188
aF36.547458053123485
aF36.566569792444525
aF36.58365645548101
aF36.612011956466205
aF36.639516792421844
aF36.66900741138726
aF36.697031858392066
aF36.716091300198315
aF36.734578958750376
aF36.744393913086085
aF36.76963108631593
aF36.78948979336384
aF36.808752739200315
aF36.82362707619356
aF36.85845626265371
aF36.88421133424258
aF36.90919375368378
aF36.92600321372624
aF36.95698185381703
aF36.983466156185735
aF37.00915592948338
aF37.049333374848956
aF37.115987470882686
aF37.17772182432216
aF37.23760414715846
aF37.303077463209675
aF37.34730752357605
aF37.386486553832604
aF37.424490213181464
aF37.45766810536208
aF37.4862038434618
aF37.522053915975306
aF37.55682848631341
aF37.593654896831566
aF37.666029622969724
aF37.74333499375048
aF37.81832120340781
aF37.894241819902426
aF37.96792901761801
aF38.01780859882077
aF38.066191792587446
aF38.11696793148463
aF38.16189934145584
aF38.20556045890976
aF38.247911742840046
aF38.28544472246193
aF38.31706393419878
aF38.351541677679485
aF38.38498508885577
aF38.42533737983445
aF38.475781400519864
aF38.53289200923277
aF38.58828929968428
aF38.649655390611386
aF38.70114849014396
aF38.755695312770314
aF38.80860573071788
aF38.853118347179176
aF38.893804265315765
aF38.93839151020214
aF38.981641137741924
aF39.012599015337486
aF39.05391531445599
aF39.09637628155877
aF39.137563419648465
aF39.17263744929949
aF39.21622987010124
aF39.25471638950597
aF39.292048313328564
aF39.33545111697565
aF39.39272368766993
aF39.44436766520376
aF39.49446232341157
aF39.539253834327305
aF39.5751410473028
aF39.61433824895222
aF39.65235953455216
aF39.6977383576533
aF39.74594388394639
aF39.78470904314985
aF39.82231124757721
aF39.84472553657453
aF39.87008383297345
aF39.890765399477985
aF39.910826518987385
aF39.941097834487714
aF39.9734555630564
aF39.997220466498156
aF40.02027242283666
aF40.04990730981085
aF40.07941015437784
aF40.11565553196431
aF40.150813548223184
aF40.18470495169726
aF40.21062179834769
aF40.22869232166969
aF40.246220729292034
aF40.25830730029783
aF40.25948832290813
aF40.27530266579521
aF40.290642578395676
aF40.31197282784299
aF40.32428873854763
aF40.348364038451976
aF40.37171707935919
aF40.388217073985295
aF40.409172462741495
aF40.432674320951556
aF40.455471123415315
aF40.472583245931304
aF40.48176372908693
aF40.472195467910964
aF40.46291425457028
aF40.460993798607596
aF40.448541017433975
aF40.42863689133562
aF40.40932988902022
aF40.397759407897745
aF40.38077454800277
aF40.369806974562415
aF40.35916842832527
aF40.35318118744698
aF40.335442696486126
aF40.31170371022233
aF40.28867689354645
aF40.257312983846845
aF40.22710460393363
aF40.209319245367844
aF40.192067447559026
aF40.16220149410732
aF40.13718022356852
aF40.104003208199195
aF40.07182150329095
aF40.01884675216485
aF39.96746124357253
aF39.911460132263585
aF39.85713905429391
aF39.794793366916245
aF39.734711005737
aF39.67682112564497
aF39.6206679419557
aF39.55864091645996
aF39.48346882102034
aF39.40703111151621
aF39.332886533297206
aF39.2447776763654
aF39.14423921039309
aF39.054989666897626
aF38.96841760970702
aF38.87913108796827
aF38.78608559888875
aF38.69107106641836
aF38.59890696992208
aF38.50263626307477
aF38.405337172606
aF38.31080545721257
aF38.219109693280934
aF38.11954249268909
aF38.019666066967744
aF37.92343299122029
aF37.830086907745255
aF37.73179215064763
aF37.643548235187524
aF37.55328476844667
aF37.465729205708044
aF37.37600425325413
aF37.29656969362712
aF37.22080029435917
aF37.147303977069264
aF37.06589516289811
aF36.96836652048001
aF36.87158155686078
aF36.77770014215013
aF36.6772438511124
aF36.584162853430996
aF36.5022544281287
aF36.42280325558547
aF36.34291316904967
aF36.274215828860456
aF36.20622747101914
aF36.14027876391306
aF36.0804112118002
aF36.01079288657796
aF35.93621824139175
aF35.863880835561126
aF35.804671328215896
aF35.73506189153073
aF35.66074443731299
aF35.58865650672179
aF35.514944075991835
aF35.433392959185035
aF35.369542048919506
aF35.30760666596194
aF35.253349278000925
aF35.20535147933285
aF35.15463072911634
aF35.10543160140633
aF35.05340211743905
aF35.00418036306989
aF34.965177659082336
aF34.92734503621441
aF34.891766731261676
aF34.84603552784436
aF34.81289650814273
aF34.78075165903215
aF34.74320872374202
aF34.691033581662595
aF34.656182188693556
aF34.622376337513586
aF34.575537734930855
aF34.519309585053314
aF34.47720807566443
aF34.43636961155721
aF34.39057324450663
aF34.34921764217964
aF34.319495851292594
aF34.29066571413216
aF34.26542607551014
aF34.25003175881195
aF34.23233570434092
aF34.215170531504015
aF34.198491427957116
aF34.19072437742165
aF34.1822209276033
aF34.1739725812795
aF34.16453735774845
aF34.155294227528664
aF34.14963418407195
aF34.14414394191894
aF34.13656479318326
aF34.15095403824784
aF34.150377094951565
aF34.149817459954185
aF34.1448510072713
aF34.13579649786128
aF34.122205837416494
aF34.109022896785056
aF34.11805657145413
aF34.119424877743356
aF34.10446720354282
aF34.0899582595683
aF34.07383942664147
aF34.06564117391423
aF34.058503347397746
aF34.051579655676754
aF34.06762889413094
aF34.07650042969729
aF34.0690415888335
aF34.06180651319563
aF34.0683369912664
aF34.07125857273429
aF34.08096845842666
aF34.09038704754826
aF34.10864365443732
aF34.103677019187714
aF34.10214251415215
aF34.10065404426765
aF34.09168965211232
aF34.08154100818782
aF34.07940907852444
aF34.077341106750964
aF34.06101641954962
aF34.06200739590295
aF34.049552492359226
aF34.037471235921814
aF34.03728040203801
aF34.036871546142024
aF34.02346484835885
aF34.01046035150917
aF34.011907841261156
aF34.01001033388945
aF34.018354584130414
aF34.026448506864156
aF34.02867129368243
aF34.02602269297596
aF34.01641757824364
aF34.007100616953295
aF34.006296481187455
aF34.00154700489259
aF34.004668838190916
aF34.00769701649029
aF34.02042934906061
aF34.01126601047472
aF34.02139939814426
aF34.03122878418372
aF34.042257315273545
aF34.04684755182018
aF34.077389398852155
aF34.107014990473175
aF34.143625589001026
aF34.18586662279547
aF34.23800075148926
aF34.28857085632223
aF34.32229049278694
aF34.35073247267922
aF34.36715625170493
aF34.38308731735986
aF34.397476899656326
aF34.42213276942648
aF34.44960777040537
aF34.4762585213549
aF34.50994283044942
aF34.5467724311564
aF34.58316331346295
aF34.6184624693003
aF34.6490859357719
aF34.67351395110785
aF34.69375919292018
aF34.71339707747814
aF34.73980344680701
aF34.77380018658863
aF34.81185450972832
aF34.84876720317382
aF34.887162853775976
aF34.923840019033776
aF34.95200854519955
aF34.97933201558034
aF35.00597582271172
aF35.04556096046517
aF35.084448993627305
aF35.122170385794576
aF35.169931728585716
aF35.23488230407563
aF35.28055444370091
aF35.324856419137426
aF35.37820811269608
aF35.430679437499194
aF35.46697710474713
aF35.50218584197763
aF35.55045776529732
aF35.601477359494545
aF35.65056622685631
aF35.69818242819723
aF35.749898881224226
aF35.8007216560949
aF35.84607142404137
aF35.89006069894945
aF35.92021699341189
aF35.96498236500033
aF36.0122476191066
aF36.058094915589685
aF36.102428701386515
aF36.16890785057271
aF36.218927330062776
aF36.267446225168136
aF36.31370432668172
aF36.350283581255454
aF36.375362799691956
aF36.399689641575364
aF36.43481093474087
aF36.48058925698647
aF36.53774122392907
aF36.59317863186339
aF36.654323355162745
aF36.70973978665273
aF36.74418492711952
aF36.777596713372304
aF36.79825028449901
aF36.829398008322734
aF36.87093099622952
aF36.9112179944991
aF36.9712880135503
aF37.04975939066256
aF37.10813514121992
aF37.164759619260565
aF37.218671297312426
aF37.27175954305829
aF37.31958872079072
aF37.36598302319118
aF37.41551996374291
aF37.46206263968572
aF37.50913225567591
aF37.554789783186386
aF37.59745778626703
aF37.6543949770732
aF37.718007110009346
aF37.7797108789574
aF37.84300424290893
aF37.91352071523209
aF37.968527844858116
aF38.02188476059536
aF38.076454041840805
aF38.12915035868064
aF38.17359361732946
aF38.21670357821881
aF38.250217543356094
aF38.27013423308807
aF38.26611971129091
aF38.262225625147664
aF38.24377966256863
aF38.2303535322473
aF38.22343010882501
aF38.216714388105395
aF38.22411551442856
aF38.23731442125514
aF38.25450705288884
aF38.27118390557352
aF38.28221908721835
aF38.29418870241916
aF38.31013001567758
aF38.325593089538245
aF38.34314720176415
aF38.35871244079479
aF38.365443511314844
aF38.3719726497193
aF38.38137949634453
aF38.38635519186557
aF38.39704200031881
aF38.40740820451846
aF38.42428426251586
aF38.4406332706303
aF38.454594618875014
aF38.46813712667238
aF38.47880570356269
aF38.4748331098111
aF38.476155936813214
aF38.477439079005265
aF38.485393370844314
aF38.48996037612651
aF38.50963159626515
aF38.52871267979963
aF38.53874426562999
aF38.54698580958574
aF38.555881381594354
aF38.56451008644271
aF38.56883155354175
aF38.56887690766178
aF38.56652016339773
aF38.56423412146161
aF38.56368209106173
aF38.57046996167712
aF38.590206394054775
aF38.6093507334611
aF38.63870335572007
aF38.67086629934356
aF38.69856168957237
aF38.72542621809432
aF38.742949279980394
aF38.768127608271676
aF38.77860242423025
aF38.788762995710066
aF38.802774894443345
aF38.8273133628884
aF38.84501587767802
aF38.86218731702396
aF38.88718192587596
aF38.91604568441446
aF38.94206210914798
aF38.9672980411395
aF38.992147437053646
aF39.02733614005641
aF39.07022608251207
aF39.111829326694064
aF39.141636860069646
aF39.18476552742514
aF39.21687640588774
aF39.24802395799646
aF39.266830575901324
aF39.29539248371851
aF39.317125379974975
aF39.338206289343745
aF39.36367995205699
aF39.40848895920094
aF39.44615902475152
aF39.48269898833559
aF39.512204321796325
aF39.54195691102407
aF39.564046741560155
aF39.585473877180156
aF39.61045392753414
aF39.6317631495019
aF39.65089468632289
aF39.669452277039255
aF39.67845255700363
aF39.67911838470291
aF39.69647113486442
aF39.713303302521076
aF39.73995249903582
aF39.773645231265476
aF39.810678978637846
aF39.846601713589045
aF39.87191294966582
aF39.9035746726527
aF39.923839790868186
aF39.943496955537206
aF39.97696305418256
aF40.01415860051825
aF40.032419027077275
aF40.05013164083953
aF40.07374031996671
aF40.096462180659856
aF40.09941391009573
aF40.102277087648524
aF40.10652856759391
aF40.11184348462466
aF40.11420074859118
aF40.11648729463871
aF40.12908688252405
aF40.15126276508167
aF40.16176756077779
aF40.171957212603026
aF40.17301339006317
aF40.17469448871223
aF40.17120414730929
aF40.16781851614844
aF40.167426499951446
aF40.15995711908002
aF40.16027691425155
aF40.16058711556793
aF40.15332291622801
aF40.16787881029393
aF40.1908396512875
aF40.21311166705126
aF40.22274860576033
aF40.24926062857163
aF40.264111419968415
aF40.278516687623295
aF40.29912370259306
aF40.31847437299306
aF40.31555270642105
aF40.3127186898462
aF40.30559973606187
aF40.293521140166
aF40.2727619417101
aF40.252625519207875
aF40.23564711631965
aF40.211659847829466
aF40.183642200131644
aF40.15646508186475
aF40.1370079839519
aF40.11581560528732
aF40.09506176186299
aF40.074930533741394
aF40.048773004830764
aF40.02593058653238
aF39.99255922782259
aF39.960189009874085
aF39.92880655561052
aF39.89836557497486
aF39.84832545525802
aF39.79978653913268
aF39.76351766761734
aF39.72833686224747
aF39.680291602657235
aF39.63368770085471
aF39.58731709219093
aF39.53119483313652
aF39.46528578879484
aF39.40135401578341
aF39.349641792350454
aF39.31097558234865
aF39.28115182910859
aF39.25222278846573
aF39.21934437262477
aF39.17896337509363
aF39.12784837682666
aF39.0782668285077
aF39.03859236038771
aF38.996424973551676
aF38.95668866876651
aF38.9181444531249
aF38.88408860318599
aF38.82723066298172
aF38.77243309271774
aF38.71927944956168
aF38.66300372585928
aF38.600986757690315
aF38.552599942841915
aF38.505664732438966
aF38.45139610466852
aF38.38705655293893
aF38.32482116739774
aF38.26445284342278
aF38.205310988269
aF38.156369453613536
aF38.1160132788169
aF38.07686778926416
aF38.05017124536813
aF38.02066703297473
aF37.9917551210209
aF37.96371056642569
aF37.94507335638489
aF37.91263041531971
aF37.8747082501495
aF37.837923749934404
aF37.79867862633651
aF37.74946289115028
aF37.7116425403189
aF37.67495680001246
aF37.649540162003554
aF37.62988504186809
aF37.614897737828876
aF37.60036005291084
aF37.58128227287578
aF37.54829866685263
aF37.51079767540324
aF37.47442171369733
aF37.44296852565787
aF37.41592683639544
aF37.396973845977705
aF37.378589445272496
aF37.36520461592061
aF37.34937966486205
aF37.33902713409622
aF37.32898517925337
aF37.31985715129007
aF37.334547186726944
aF37.348509401224135
aF37.36205274928641
aF37.369311741158555
aF37.372719674433704
aF37.350747339223645
aF37.32943417406989
aF37.31098204191691
aF37.295617746284684
aF37.288763278897896
aF37.28211444553271
aF37.28894618828651
aF37.29303494189377
aF37.28185263283172
aF37.27100579304154
aF37.237279684963056
aF37.205300130667524
aF37.17528272177695
aF37.1461658351531
aF37.15110020937469
aF37.169317993438504
aF37.158230090460414
aF37.14747482457167
aF37.135169654652714
aF37.11290179383903
aF37.10170438862539
aF37.09084290556817
aF37.0977624900778
aF37.09683058974203
aF37.08486231274095
aF37.07325308404991
aF37.054568518312315
aF37.02820018668573
aF36.99622260683416
aF36.96520435437814
aF36.93339003087167
aF36.89470047651306
aF36.86142632123542
aF36.82915039061611
aF36.80053292237414
aF36.77853861223277
aF36.7506639786973
aF36.723625584167884
aF36.7010569976543
aF36.697093930487554
aF36.68930440400598
aF36.68174856331886
aF36.694729615744166
aF36.71133404781564
aF36.71543732334963
aF36.7194175006176
aF36.72337069574367
aF36.71848427673962
aF36.70763475087565
aF36.69711071078759
aF36.69049233183482
aF36.69133208312747
aF36.696918786409285
a.