(lp0
F35.34937234237689
aF35.34937234237689
aF35.34040713272134
aF35.307922425486986
aF35.28946155752823
aF35.27155451560823
aF35.25245080758722
aF35.24992919956962
aF35.26912175842463
aF35.28773854051399
aF35.29472164726728
aF35.28676872957343
aF35.27329012526816
aF35.26021587909205
aF35.249016207217835
aF35.2420211644204
aF35.240937342549515
aF35.239886035334756
aF35.234758338896
aF35.21574926053779
aF35.19171916865582
aF35.16840997953032
aF35.148578338517986
aF35.13151769114558
aF35.12760799615572
aF35.123815592015546
aF35.12527122217621
aF35.12333706279953
aF35.13027236676378
aF35.136999611609106
aF35.143850393670206
aF35.13593109350188
aF35.12447750692309
aF35.11336752794167
aF35.09370108009449
aF35.081900322654455
aF35.07127026874133
aF35.0609591164456
aF35.045147325904175
aF35.02008664234871
aF34.974014746239554
aF34.929325007013674
aF34.88556465295033
aF34.84685953991632
aF34.80338629188453
aF34.761217241293686
aF34.73011209463253
aF34.70812600785078
aF34.70129670831005
aF34.69467228775555
aF34.69742396249215
aF34.704396612721496
aF34.702521310403085
aF34.70070226715423
aF34.696799975580035
aF34.70142958521469
aF34.70507860284265
aF34.70861814994177
aF34.725814750889874
aF34.7500537662439
aF34.77252110224275
aF34.794314418161626
aF34.82540156009586
aF34.854542847668114
aF34.87547155729082
aF34.89577240562485
aF34.90786394590266
aF34.92459248817977
aF34.951409570044014
aF34.97742213945233
aF35.01611134295162
aF35.06498017340386
aF35.096382602228466
aF35.126842958188334
aF35.15422059501758
aF35.18036772750246
aF35.20217214081098
aF35.22332242172025
aF35.24708173763626
aF35.26130293636022
aF35.27952825136495
aF35.29720680691955
aF35.329632617196026
aF35.37322006774068
aF35.42770705791985
aF35.480559438393634
aF35.532170254604424
aF35.575008129996085
aF35.61172011596662
aF35.64733074235804
aF35.681498751899795
aF35.70968069557692
aF35.741051595018206
aF35.77148136747625
aF35.80059853971013
aF35.83682027733921
aF35.864594370719296
aF35.89153524129798
aF35.92564158388505
aF35.95529666672292
aF35.98043125220379
aF36.004811800120244
aF36.035763360454986
aF36.05762061129809
aF36.07924510875868
aF36.10022087129544
aF36.13121072593185
aF36.15347812405447
aF36.19007591468427
aF36.225575771595175
aF36.2671573227636
aF36.29592769778509
aF36.34705401080988
aF36.396646534443924
aF36.440702681166215
aF36.48633695419508
aF36.52708034429122
aF36.56660143268447
aF36.5823485566854
aF36.597902790817145
aF36.60927265923099
aF36.62030143159242
aF36.64212849257395
aF36.67895276828414
aF36.707256025085584
aF36.73471018418299
aF36.760802307902324
aF36.77437596540843
aF36.79172673430192
aF36.8085569801286
aF36.828389843741085
aF36.85196880625046
aF36.88918864269187
aF36.92529188404004
aF36.959916452259066
aF36.9870445195811
aF37.01990156814662
aF37.05177290525518
aF37.08268810225048
aF37.10902871064144
aF37.150151682496265
aF37.19004096519544
aF37.21728450914256
aF37.24761608855061
aF37.280562279488926
aF37.312520084699095
aF37.33282887064955
aF37.36743710579656
aF37.4052170860665
aF37.44186366692834
aF37.47741924080205
aF37.525893051357
aF37.57313229805983
aF37.618954367361574
aF37.65180573932838
aF37.706631117560306
aF37.75981173444527
aF37.81139693282369
aF37.85723757824968
aF37.909223250197165
aF37.936980569470975
aF37.96390516916657
aF37.99778440187059
aF38.04210727466178
aF38.08869410762394
aF38.13388333559723
aF38.1890573278674
aF38.23865886106353
aF38.27538204257389
aF38.31100352863894
aF38.33149208736322
aF38.355099062690265
aF38.37088226653919
aF38.38619197427265
aF38.412225962264664
aF38.455473942974535
aF38.49728223235813
aF38.53783627306022
aF38.59985446426693
aF38.66376852653749
aF38.73776966479266
aF38.80955076890017
aF38.875671922888955
aF38.94002666600853
aF38.99181300855466
aF39.0420457608244
aF39.09001841147667
aF39.14413377642472
aF39.17403134132056
aF39.20303197926952
aF39.25353903888352
aF39.302336733852094
aF39.34543088488347
aF39.3872322113839
aF39.45814892722423
aF39.519809431664264
aF39.58006878937415
aF39.63852036635274
aF39.70287579120995
aF39.75369697411419
aF39.802993521531306
aF39.85081117252591
aF39.889323094272285
aF39.922711371888866
aF39.96328095701706
aF40.00263345459141
aF40.04061305179657
aF40.07786143459387
aF40.121267410980956
aF40.16337120807643
aF40.18184659689513
aF40.19214038930262
aF40.205630159957614
aF40.21871523749296
aF40.235117140360124
aF40.25404867134958
aF40.27637004524651
aF40.29802177792653
aF40.319671788192046
aF40.32943252307488
aF40.34337617371829
aF40.3569015148424
aF40.36638479918915
aF40.375300788450495
aF40.38082584629072
aF40.38618515239574
aF40.40203066966978
aF40.411884795478755
aF40.41370268540224
aF40.415466038628026
aF40.417676719134356
aF40.40764476288468
aF40.3952056085653
aF40.383139628875504
aF40.35689457632477
aF40.32613139913733
aF40.286226976951596
aF40.247519687431435
aF40.21399225663686
aF40.20070238964468
aF40.18341200219313
aF40.166640326365126
aF40.146517061920086
aF40.126997495408396
aF40.093611218680984
aF40.0612265302554
aF40.02366839506633
aF39.99122492835869
aF39.95234729524896
aF39.91463599113253
aF39.872844637775614
aF39.836806457697634
aF39.795183535149185
aF39.75480930027719
aF39.70336652369542
aF39.64185416797943
aF39.557105047737835
aF39.47489840110349
aF39.38169650271484
aF39.29997786375588
aF39.201230573627825
aF39.10544570220362
aF39.01182782876385
aF38.91459317079749
aF38.81121126772353
aF38.71093082174178
aF38.62723784006071
aF38.554335598958126
aF38.488416476295676
aF38.4244749273131
aF38.36799836836533
aF38.31507950438765
aF38.25543760261927
aF38.19758495790394
aF38.14018731278648
aF38.063311959292676
aF37.97204689553524
aF37.88351978369053
aF37.814344456069605
aF37.73413193447025
aF37.64881696513894
aF37.56606144488757
aF37.481857726676736
aF37.371418924948436
aF37.25303959877415
aF37.138211652385095
aF37.04540319563285
aF36.95537899258318
aF36.858436125460095
aF36.764401544350704
aF36.688236654417885
aF36.5966962819053
aF36.5113830632637
aF36.42862924118135
aF36.36328036118856
aF36.30181522226912
aF36.240223448830804
aF36.18047942859564
aF36.1255175960748
aF36.06749633756594
aF35.993537422103984
aF35.921797274105884
aF35.85118670336629
aF35.768522083634245
aF35.67369645991418
aF35.581715604905725
aF35.502454343780414
aF35.41862674500754
aF35.348522784838835
aF35.280521943475186
aF35.22893245586192
aF35.175961199066876
aF35.13055944531399
aF35.08651974417369
aF35.04519108764224
aF35.0013949708147
aF34.962802663576184
aF34.92536812555482
aF34.89497828495792
aF34.86882423093999
aF34.84377378099747
aF34.81947484455323
aF34.78440186735001
aF34.74875741754253
aF34.704043687377464
aF34.660671369117345
aF34.63447029278089
aF34.619065072352136
aF34.599758980036796
aF34.58103207049091
aF34.56627525117229
aF34.527216221659145
aF34.478694456305504
aF34.43162834391248
aF34.37941035995272
aF34.33196478194778
aF34.30252259949963
aF34.27396368252492
aF34.24539648752116
aF34.21512578467618
aF34.180166577237685
aF34.146256146022345
aF34.115072228823685
aF34.09599107548559
aF34.08456083079713
aF34.07347349344932
aF34.06251216055946
aF34.04346297787121
aF34.01365365463686
aF33.984738611099544
aF33.95205793294231
aF33.93023638960107
aF33.90192016685365
aF33.87445343078865
aF33.859222200245654
aF33.85154523895426
aF33.84741480533546
aF33.84340828472523
aF33.83593570536862
aF33.832033200264526
aF33.828401605689734
aF33.82487895895218
aF33.796417678972446
aF33.776418637654345
aF33.74900701365924
aF33.72241773838398
aF33.692842794982234
aF33.67101953579826
aF33.65330460385639
aF33.63612111987278
aF33.60917467477485
aF33.5941522029706
aF33.58712123677601
aF33.58030119956725
aF33.57778568347582
aF33.589827639872084
aF33.593995457296
aF33.598038240197205
aF33.6018588681382
aF33.60084164939112
aF33.596417758036786
aF33.59212658342308
aF33.599591584842166
aF33.610058764848006
aF33.60186080510876
aF33.593908784161684
aF33.597930171833106
aF33.6066227305144
aF33.62270796028473
aF33.63831063316194
aF33.675749538647516
aF33.714398478156646
aF33.739550951338536
aF33.76394885032497
aF33.791162605555016
aF33.82122604564684
aF33.84312207541015
aF33.86436122428056
aF33.88161945586389
aF33.89404220559324
aF33.90576627404667
aF33.917138620446494
aF33.92480000177507
aF33.94768342992844
aF33.94727352121116
aF33.9468759097554
aF33.942433851505996
aF33.96025750783876
aF33.96630763526613
aF33.97217625887068
aF33.9738919741901
aF33.98318279006107
aF33.97805884054925
aF33.97308860952278
aF33.979109427006144
aF33.99886799103599
aF34.00646872248734
aF34.01384143199515
aF34.02905375862323
aF34.032352196194154
aF34.05581764176679
aF34.07857912397224
aF34.106129565681854
aF34.13341808918025
aF34.17266723373164
aF34.210738903946485
aF34.23791054048141
aF34.267376380372504
aF34.29299649726168
aF34.31784801064419
aF34.35172884573383
aF34.38964044935376
aF34.42548636981818
aF34.46025691266866
aF34.50061046511385
aF34.52923227933614
aF34.55400305305166
aF34.57803070355571
aF34.62121923437729
aF34.66849603387659
aF34.71335155967752
aF34.756861419704414
aF34.80894335486764
aF34.86771243123026
aF34.91370564042888
aF34.958319053351545
aF35.008815516860125
aF35.07737246361771
aF35.13595620418382
aF35.192782432532944
aF35.255936089288994
aF35.330098829103015
aF35.387089755936756
aF35.44237095496548
aF35.51111098685255
aF35.59374592873523
aF35.66102737980904
aF35.72629038735064
aF35.785567937569745
aF35.83034139384754
aF35.85641194923991
aF35.88170038797051
aF35.937317795752236
aF36.00201691444719
aF36.06667865003689
aF36.1294005335589
aF36.19024076057525
aF36.23829216743677
aF36.265937933124654
aF36.2927543258419
aF36.32912442007514
aF36.376510352588305
aF36.4080068201036
aF36.43855839359344
aF36.48409911416087
aF36.52493112161964
aF36.56833437086139
aF36.61043552262589
aF36.657519532397025
aF36.715485124911886
aF36.7622527594449
aF36.80761736494192
aF36.856124153528185
aF36.90562266393712
aF36.94133646752015
aF36.975978856995695
aF37.010597791097695
aF37.03998125997396
aF37.07301996723773
aF37.10506751328358
aF37.14363428558043
aF37.192624031226224
aF37.23689757835689
aF37.27984291907364
aF37.313069365052634
aF37.35307163619696
aF37.38062278488645
aF37.40734739911525
aF37.444328478226566
aF37.49450481673431
aF37.53250039635714
aF37.569356108591286
aF37.6139330926806
aF37.67101165206527
aF37.70361168542077
aF37.7352337177756
aF37.77355609560249
aF37.80828460246964
aF37.827955474442376
aF37.84703622025593
aF37.88327722182232
aF37.917854319884015
aF37.942434554239966
aF37.96627738156524
aF37.99199066739131
aF38.00939726502609
aF38.020842586818134
aF38.03194454895642
aF38.052824576370185
aF38.07649492238903
aF38.09233055041104
aF38.10769110959239
aF38.12340045855987
aF38.13154658504709
aF38.12500938502187
aF38.118668300997406
aF38.12309915684251
aF38.12372075207023
aF38.13126361468871
aF38.138580191428645
aF38.157314825175185
aF38.17129636163432
aF38.18172529108173
aF38.191841352645724
aF38.19761778567003
aF38.19525889400151
aF38.193918159942996
aF38.19261764790623
aF38.1985395533051
aF38.20762531374253
aF38.21703306281643
aF38.2261585794181
aF38.245232063612605
aF38.26097326560407
aF38.275962225963355
aF38.290501517511856
aF38.3123804280451
aF38.33360297126235
aF38.366142904074856
aF38.39770663890298
aF38.42795894364468
aF38.450801384742185
aF38.46093116197977
aF38.470757045900235
aF38.47664048011578
aF38.48622476705061
aF38.50242567582994
aF38.518140557345895
aF38.53719124669287
aF38.55845169082947
aF38.57893943147415
aF38.598812539899484
aF38.62382620590778
aF38.664807105631574
aF38.70864711729735
aF38.75117192861316
aF38.796153784658586
aF38.82239052744071
aF38.83761172626655
aF38.85237628912762
aF38.863075756115514
aF38.875633755588375
aF38.90401437529861
aF38.93154357641754
aF38.968917415506645
aF39.00243722216964
aF39.04029829447464
aF39.07702353461048
aF39.10776214640283
aF39.1492293137026
aF39.19170688085063
aF39.23291012098423
aF39.27668124360205
aF39.32356884989689
aF39.36661576911191
aF39.40837128075048
aF39.46269534720015
aF39.51667806973665
aF39.57704437524905
aF39.63559969159608
aF39.68824474408254
aF39.73546098471256
aF39.7603516017303
aF39.784495500237504
aF39.80706816719327
aF39.83120356170301
aF39.84612868523223
aF39.86060605505557
aF39.88650145769085
aF39.91205354238437
aF39.93312720196421
aF39.95356865175666
aF39.998486785847646
aF40.04235825367386
aF40.093018280532625
aF40.14215850658562
aF40.19173568899111
aF40.21759674687981
aF40.23465858895192
aF40.251208575761865
aF40.2503519092527
aF40.24001462787926
aF40.23152507498909
aF40.22329020868562
aF40.23217946779921
aF40.25920831894664
aF40.29620212944613
aF40.33208612563063
aF40.36625704115449
aF40.38804342033862
aF40.38719888374402
aF40.38637968324726
aF40.38343173973229
aF40.39509344820926
aF40.40722750059199
aF40.41899753140324
aF40.442405273503105
aF40.46829162749868
aF40.46587295279842
aF40.46352683833917
aF40.451177336001365
aF40.44467053533571
aF40.438890376298346
aF40.43328362203211
aF40.435007846491494
aF40.44009627988871
aF40.41785975495755
aF40.39629032577432
aF40.370362692224255
aF40.330112794620995
aF40.292352317658754
aF40.25572465500538
aF40.23347152713599
aF40.20788608207299
aF40.18893204034951
aF40.17054661987774
aF40.13995478849334
aF40.101407336317074
aF40.052434755980045
aF40.00493135305313
aF39.95679611914805
aF39.9101387014639
aF39.86040060009939
aF39.81215464177581
aF39.76767450228457
aF39.722294954319636
aF39.68561759244337
aF39.650040551423395
aF39.61932005352691
aF39.58733403474106
aF39.54726456405598
aF39.50839717749145
aF39.45120117028294
aF39.398896073161296
aF39.34500233728166
aF39.29272541347842
aF39.253687756554136
aF39.22098189439249
aF39.17996565640439
aF39.14017990555594
aF39.083416552162184
aF39.022748938410686
aF38.96743638594918
aF38.91378321006152
aF38.859960394441565
aF38.81490847472598
aF38.76010400836651
aF38.70694367599782
aF38.63899503259431
aF38.563301135019024
aF38.48974800246305
aF38.41840146388376
aF38.35250999308651
aF38.29776963690212
aF38.25447332831101
aF38.21247590897764
aF38.179412979985656
aF38.14296797126085
aF38.09088896407945
aF38.04037232711348
aF37.98389231053792
aF37.91430113849077
aF37.844788051503635
aF37.777360357126106
aF37.73317046248428
aF37.69747146989582
aF37.656623863437545
aF37.61700168517302
aF37.575085074103995
aF37.53899638969624
aF37.498663791043825
aF37.45954117035098
aF37.429267962024355
aF37.403904460279044
aF37.35661645987543
aF37.31074709948393
aF37.27683218980967
aF37.25808129410558
aF37.24275335292355
aF37.227885249976985
aF37.22144452561557
aF37.222778047129026
aF37.20613041625055
aF37.18998221429844
aF37.17123476840254
aF37.153213684460695
aF37.112105690432195
aF37.07223093622455
aF37.03144066319976
aF37.00465797797629
aF36.9869937404987
aF36.96985943014543
aF36.96250635191612
aF36.96927989403687
aF36.97235984538668
aF36.975347398195986
aF36.977480276733495
aF36.998518672295525
aF37.01949765464145
aF37.03984726751699
aF37.05523335505239
aF37.072872399778404
aF37.06484802145551
aF37.0570643744823
aF37.04635379633156
aF37.049045509360205
aF37.04234758928632
aF37.035850606814655
aF37.036998928544065
aF37.04136337935943
aF37.041021508167006
aF37.040689893110354
aF37.04884061394636
aF37.06002870972037
aF37.06709550983917
aF37.073950305954405
aF37.07307695536667
aF37.06803682120564
aF37.04720856629148
aF37.027005159024746
aF37.00598169630877
aF36.976722873540226
aF36.93592856110946
aF36.89635807805163
aF36.87332899261496
aF36.85073962423911
aF36.83227142540992
aF36.81435727254561
aF36.811551585839084
aF36.80898448830959
aF36.7964086959941
aF36.78421017744808
aF36.783076245697906
aF36.78131484638767
aF36.765103815359836
aF36.74937911526283
aF36.74691128042902
aF36.740338885624354
aF36.71899994967817
aF36.69830118181037
aF36.679117721817725
aF36.66286586221144
aF36.638807806084415
aF36.6154714916412
aF36.59859319836265
aF36.59357048387139
aF36.58519771786232
aF36.577076134833526
aF36.562032586008364
aF36.56136570798633
aF36.56797906303094
aF36.57439401742421
a.